Microsoft (R) Macro Assembler Version 14.41.34120.0	    12/13/24 22:10:49
select_music_page.asm					     Page 1 - 1


				.686P
				.XMM
				.model flat, c
				include csfml.inc
			      C ; CSFML.INC - SFML Definitions for x86 Assembly
			      C ; 使用 MASM 語法
			      C 
			      C includelib csfml-audio.lib
			      C includelib csfml-graphics.lib
			      C includelib csfml-system.lib
			      C includelib csfml-window.lib
			      C 
			      C ; sfBool 定義
 = 00000000		      C sfFalse     equ 0
 = 00000001		      C sfTrue      equ 1
			      C 
			      C ; sfEventType 定義
 = 00000000		      C sfEvtClosed               equ 0
 = 00000001		      C sfEvtResized              equ 1
 = 00000002		      C sfEvtLostFocus            equ 2
 = 00000003		      C sfEvtGainedFocus          equ 3
 = 00000004		      C sfEvtTextEntered          equ 4
 = 00000005		      C sfEvtKeyPressed           equ 5
 = 00000006		      C sfEvtKeyReleased          equ 6
 = 00000007		      C sfEvtMouseWheelMoved      equ 7
 = 00000008		      C sfEvtMouseWheelScrolled   equ 8
 = 00000009		      C sfEvtMouseButtonPressed   equ 9
 = 0000000A		      C sfEvtMouseButtonReleased  equ 10
 = 0000000B		      C sfEvtMouseMoved           equ 11
 = 0000000C		      C sfEvtMouseEntered         equ 12
 = 0000000D		      C sfEvtMouseLeft            equ 13
			      C 
			      C ; sfMouseButton 定義
 = 00000000		      C sfMouseLeft   equ 0
 = 00000001		      C sfMouseRight  equ 1
 = 00000002		      C sfMouseMiddle equ 2
			      C 
			      C ; sfKey 定義
 = 0000003A		      C sfKeyEnter    equ 58
 = 00000000		      C sfKeyA        equ 0
 = 00000012		      C sfKeyS        equ 18
 = 00000003		      C sfKeyD        equ 3
			      C 
			      C ; 視窗風格定義
 = 00000000		      C sfNone       equ 0
 = 00000001		      C sfTitlebar   equ 1
 = 00000002		      C sfResize     equ 2
 = 00000004		      C sfClose      equ 4
 = 00000008		      C sfFullscreen equ 8
			      C 
			      C ; 結構體定義
 00000008		      C sfVector2f STRUCT
 00000000  00000000	      C     x REAL4 ?
 00000004  00000000	      C     y REAL4 ?
			      C sfVector2f ENDS
			      C 
 00000008		      C sfVector2i STRUCT
 00000000  00000000	      C     x SDWORD ?
 00000004  00000000	      C     y SDWORD ?
			      C sfVector2i ENDS
			      C 
 0000000C		      C sfVideoMode STRUCT
 00000000  00000000	      C     _width  DWORD ?
 00000004  00000000	      C     height DWORD ?
 00000008  00000000	      C     bpp    DWORD ?
			      C sfVideoMode ENDS
			      C 
 00000004		      C sfColor STRUCT
 00000000  00		      C     r BYTE ?
 00000001  00		      C     g BYTE ?
 00000002  00		      C     b BYTE ?
 00000003  00		      C     a BYTE ?
			      C sfColor ENDS
			      C 
 00000010		      C sfFloatRect STRUCT
 00000000  00000000	      C     left   REAL4 ?
 00000004  00000000	      C     top    REAL4 ?
 00000008  00000000	      C     _width  REAL4 ?
 0000000C  00000000	      C     height REAL4 ?
			      C sfFloatRect ENDS
			      C 
 0000000C		      C mouseButton STRUCT
 00000000  00000000	      C     button DWORD ?
 00000004  00000000	      C     x DWORD ?
 00000008  00000000	      C     y DWORD ?
			      C mouseButton ENDS
			      C 
 00000014		      C key STRUCT
 00000000  00000000	      C     code DWORD ?
 00000004  00000000	      C     alt DWORD ?
 00000008  00000000	      C     control DWORD ?
 0000000C  00000000	      C     shift DWORD ?
 00000010  00000000	      C     system DWORD ?
			      C key ENDS
			      C 
 00000030		      C sfEvent STRUCT
 00000000  00000000	      C     _type DWORD ?                
 00000004  00000000	      C     _size DWORD ?                
 00000008  00000000	      C     mouse mouseButton <>       
	   00000000
	   00000000
 00000014  00000000	      C     _key key <>                 
	   00000000
	   00000000
	   00000000
	   00000000
 00000028  00000000	      C     mouseMove sfVector2i <>     
	   00000000
			      C sfEvent ENDS
			      C 
			      C ; 函數原型 - 視窗相關
			      C EXTERN sfRenderWindow_create:PROC
			      C EXTERN sfRenderWindow_destroy:PROC
			      C EXTERN sfRenderWindow_close:PROC
			      C EXTERN sfRenderWindow_isOpen:PROC
			      C EXTERN sfRenderWindow_clear:PROC
			      C EXTERN sfRenderWindow_display:PROC
			      C EXTERN sfRenderWindow_pollEvent:PROC
			      C EXTERN sfRenderWindow_drawSprite:PROC
			      C EXTERN sfRenderWindow_drawText:PROC
			      C 
			      C ; 函數原型 - 紋理相關
			      C EXTERN sfTexture_createFromFile:PROC
			      C EXTERN sfTexture_destroy:PROC
			      C 
			      C ; 函數原型 - 精靈相關
			      C EXTERN sfSprite_create:PROC
			      C EXTERN sfSprite_destroy:PROC
			      C EXTERN sfSprite_setTexture:PROC
			      C 
			      C ; 函數原型 - 音樂相關
			      C EXTERN sfMusic_createFromFile:PROC
			      C EXTERN sfMusic_destroy:PROC
			      C EXTERN sfMusic_play:PROC
			      C EXTERN sfMusic_setLoop:PROC
			      C EXTERN sfMusic_stop: PROC
			      C 
			      C ; 函數原型 - 文字相關
			      C EXTERN sfFont_createFromFile:PROC
			      C EXTERN sfFont_destroy:PROC
			      C EXTERN sfText_create:PROC
			      C EXTERN sfText_destroy:PROC
			      C EXTERN sfText_setFont:PROC
			      C EXTERN sfText_setString:PROC
			      C EXTERN sfText_setCharacterSize:PROC
			      C EXTERN sfText_setFillColor:PROC
			      C EXTERN sfText_setOutlineColor:PROC
			      C EXTERN sfText_setOutlineThickness:PROC
			      C EXTERN sfText_getLocalBounds:PROC
			      C EXTERN sfText_getGlobalBounds:PROC
			      C EXTERN sfText_setPosition:PROC
			      C 
			      C ; 函數原型 - 顏色相關
			      C EXTERN sfColor_fromRGB:PROC
			      C EXTERN sfColor_fromRGBA:PROC
			      C 
			      C ; 函數原型 - 矩形相關
			      C EXTERN sfRectangleShape_create: PROC
			      C EXTERN sfRectangleShape_setPosition: PROC
			      C EXTERN sfRectangleShape_setSize: PROC
			      C EXTERN sfRectangleShape_setFillColor: PROC
			      C EXTERN sfRectangleShape_setOutlineThickness: PROC
			      C EXTERN sfRenderWindow_drawRectangleShape: PROC
			      C EXTERN sfRectangleShape_destroy: PROC
			      C EXTERN sfRectangleShape_setOutlineColor: PROC
			      C 

				extern currentPage: DWORD

 = 00000000			BUTTON_STATE_NORMAL equ 0
 = 00000001			BUTTON_STATE_PRESSED equ 1

 00000008			Button STRUCT
 00000000  00000000		    shape dd ?
 00000004  00000000		    state dd ?
				Button ENDS

 00000000			.data
				    ; 檔案路徑
 00000000 61 73 73 65 74	    music1_path db "assets/main/song1.ogg", 0
	   73 2F 6D 61 69
	   6E 2F 73 6F 6E
	   67 31 2E 6F 67
	   67 00
 00000016 61 73 73 65 74	    music2_path db "assets/main/song2.ogg", 0
	   73 2F 6D 61 69
	   6E 2F 73 6F 6E
	   67 32 2E 6F 67
	   67 00
 0000002C 61 73 73 65 74	    music3_path db "assets/main/song3.ogg", 0
	   73 2F 6D 61 69
	   6E 2F 73 6F 6E
	   67 33 2E 6F 67
	   67 00
 00000042 61 73 73 65 74	    bg_path db "assets/main/song_select_bg.jpg", 0
	   73 2F 6D 61 69
	   6E 2F 73 6F 6E
	   67 5F 73 65 6C
	   65 63 74 5F 62
	   67 2E 6A 70 67
	   00
 00000061 61 73 73 65 74	    font_path db "assets/main/Taiko_No_Tatsujin_Official_Font.ttf", 0
	   73 2F 6D 61 69
	   6E 2F 54 61 69
	   6B 6F 5F 4E 6F
	   5F 54 61 74 73
	   75 6A 69 6E 5F
	   4F 66 66 69 63
	   69 61 6C 5F 46
	   6F 6E 74 2E 74
	   74 66 00
				   
				    ; 提示文字
 00000091 53 6F 6E 67 20	    song1_string db "Song 1", 0
	   31 00
 00000098 53 6F 6E 67 20	    song2_string  db "Song 2", 0
	   32 00
 0000009F 53 6F 6E 67 20	    song3_string  db "Song 3", 0
	   33 00
 000000A6 49 6E 74 72 6F	    instruction_string db "Introduction", 0
	   64 75 63 74 69
	   6F 6E 00
				    
				    ; CSFML物件
				    ; window dd 0
 000000B3 00000000		    bgTexture dd 0
 000000B7 00000000		    bgSprite dd 0
 000000BB 00000000		    bgMusic dd 0
 000000BF 00000000		    font dd 0

 000000C3 00000000		    song1Text dd 0
 000000C7 00000000		    song2Text dd 0
 000000CB 00000000		    song3Text dd 0
 000000CF 00000000		    instructionText dd 0


 000000D3 00000000		    KeyA_state dd 0 ; 追蹤按鍵是否按下
 000000D7 00000000		    KeyS_state dd 0
 000000DB 00000000		    KeyD_state dd 0

 000000DF 00000000		    song1Bounds sfFloatRect <>
	   00000000
	   00000000
	   00000000
 000000EF 00000000		    song2Bounds sfFloatRect <>
	   00000000
	   00000000
	   00000000
 000000FF 00000000		    song3Bounds sfFloatRect <>
	   00000000
	   00000000
	   00000000
 0000010F 00000000		    instructionBounds sfFloatRect <>
	   00000000
	   00000000
	   00000000

				    ; 視窗設定
				    ;window_videoMode sfVideoMode <1280, 720, 32>
 0000011F 44A00000		    window_realWidth dd 044a00000r ; 1280.0
				    ; 事件結構
 00000123 00000000		    event sfEvent <>
	   00000000
	   00000000
	   00000000
	   00000000
	   00000000
	   00000000
	   00000000
	   00000000
	   00000000
	   00000000
	   00000000

				    ; 顏色常數
 00000153 A9 A9 A9 FF		    gray_color sfColor <169, 169, 169, 255>
 00000157 69 69 69 FF		    dark_gray_color sfColor <105, 105, 105, 255>
 0000015B D2 D2 D2 FF		    light_gray_color sfColor <210, 210, 210, 255>
 0000015F FF EF C6 FF		    beige_color sfColor <255, 239, 198, 255>
 00000163 00 00 00 FF		    black_color sfColor <0, 0, 0, 255>

				    ; 按鈕物件
 00000167 00000000		    button1_shape Button <>
	   00000000
 0000016F 00000000		    button2_shape Button <>
	   00000000
 00000177 00000000		    button3_shape Button <>
	   00000000
 0000017F 00000000		    instruction_shape Button <>
	   00000000
				        
				    ; 常數
 00000187 43C80000		    button_x REAL4 400.0
 0000018B 43160000		    button1_y REAL4 150.0
 0000018F 437A0000		    button2_y REAL4 250.0
 00000193 43AF0000		    button3_y REAL4 350.0
 00000197 43200000		    instruction_x REAL4 160.0
 0000019B 43FA0000		    instruction_y REAL4 500.0
 0000019F 43F00000		    button_width REAL4 480.0
 000001A3 44700000		    instruction_width REAL4 960.0
 000001A7 42700000		    button_height REAL4 60.0
 000001AB 43160000		    instruction_height REAL4 150.0
 000001AF 40400000		    outline_thickness REAL4 3.0

 000001B3 40000000		    two dd 2.0
 000001B7 43200000		    const_160 dd 160.0
 000001BB 43820000		    const_260 dd 260.0
 000001BF 43B40000		    const_360 dd 360.0
 000001C3 44098000		    const_550 dd 550.0

 00000000			.code

				; 載入背景
 00000000			@load_background PROC
				    ; 創建背景紋理
 00000000  6A 00		    push 0
 00000002  68 00000042 R	    push offset bg_path
 00000007  E8 00000000 E	    call sfTexture_createFromFile
 0000000C  83 C4 08		    add esp, 8
 0000000F  A3 000000B3 R	    mov bgTexture, eax
				    
				    ; 創建背景精靈
 00000014  E8 00000000 E	    call sfSprite_create
 00000019  A3 000000B7 R	    mov DWORD PTR [bgSprite], eax
				    
				    ; 設定紋理
 0000001E  6A 01		    push 1
 00000020  A1 000000B3 R	    mov eax, DWORD PTR [bgTexture]
 00000025  50			    push eax
 00000026  8B 0D 000000B7 R	    mov ecx, DWORD PTR [bgSprite]
 0000002C  51			    push ecx
 0000002D  E8 00000000 E	   call sfSprite_setTexture
 00000032  83 C4 0C		    add esp, 12
 00000035  C3			    ret
 00000036			@load_background ENDP

				; 設定音樂1
 00000036			play_music1 PROC
 00000036  68 00000000 R	    push offset music1_path
 0000003B  E8 00000000 E	    call sfMusic_createFromFile
 00000040  83 C4 04		    add esp, 4 
 00000043  A3 000000BB R	    mov bgMusic, eax

 00000048  50			    push eax
 00000049  E8 00000000 E	    call sfMusic_play
 0000004E  83 C4 04		    add esp, 4
 00000051  C3			    ret
 00000052			play_music1 ENDP

				; 設定音樂2
 00000052			play_music2 PROC
 00000052  68 00000016 R	    push offset music2_path
 00000057  E8 00000000 E	    call sfMusic_createFromFile
 0000005C  83 C4 04		    add esp, 4 
 0000005F  A3 000000BB R	    mov bgMusic, eax

 00000064  50			    push eax
 00000065  E8 00000000 E	    call sfMusic_play
 0000006A  83 C4 04		    add esp, 4
 0000006D  C3			    ret
 0000006E			play_music2 ENDP

				; 設定音樂3
 0000006E			play_music3 PROC
 0000006E  68 0000002C R	    push offset music3_path
 00000073  E8 00000000 E	    call sfMusic_createFromFile
 00000078  83 C4 04		    add esp, 4 
 0000007B  A3 000000BB R	    mov bgMusic, eax

 00000080  50			    push eax
 00000081  E8 00000000 E	    call sfMusic_play
 00000086  83 C4 04		    add esp, 4
 00000089  C3			    ret
 0000008A			play_music3 ENDP

				; 設定Song1文字
 0000008A			setup_song1_text PROC
				    ; Create font
 0000008A  68 00000061 R	    push offset font_path
 0000008F  E8 00000000 E	    call sfFont_createFromFile
 00000094  83 C4 04		    add esp, 4
 00000097  A3 000000BF R	    mov font, eax
				    
				    ; Create text object
 0000009C  E8 00000000 E	    call sfText_create
 000000A1  A3 000000C3 R	    mov DWORD PTR [song1Text], eax
				    
				    ; Set font
 000000A6  FF 35 000000BF R	    push font
 000000AC  A1 000000C3 R	    mov eax, DWORD PTR [song1Text]
 000000B1  50			    push eax
 000000B2  E8 00000000 E	    call sfText_setFont
 000000B7  83 C4 08		    add esp, 8
				    
				    ; Set string
 000000BA  68 00000091 R	    push offset song1_string
 000000BF  A1 000000C3 R	    mov eax, DWORD PTR [song1Text]
 000000C4  50			    push eax
 000000C5  E8 00000000 E	    call sfText_setString
 000000CA  83 C4 08		    add esp, 8
				    
				    ; Set character size
 000000CD  6A 20		    push 32
 000000CF  A1 000000C3 R	    mov eax, DWORD PTR [song1Text]
 000000D4  50			    push eax
 000000D5  E8 00000000 E	    call sfText_setCharacterSize
 000000DA  83 C4 08		    add esp, 8
				    
				    ; Set fill color
 000000DD  FF 35 00000163 R	    push black_color
 000000E3  A1 000000C3 R	    mov eax, DWORD PTR [song1Text]
 000000E8  50			    push eax
 000000E9  E8 00000000 E	    call sfText_setFillColor
 000000EE  83 C4 08		    add esp, 8
				        
				    ; Set position
 000000F1  83 EC 10		    sub esp, 16
 000000F4  8D 04 24		    lea eax, [esp]

 000000F7  FF 35 000000C3 R	    push DWORD PTR [song1Text]
 000000FD  50			    push eax
 000000FE  E8 00000000 E	    call sfText_getLocalBounds
 00000103  83 C4 08		    add esp, 8

 00000106  8B 10		    mov edx, DWORD PTR [eax]
 00000108  89 15 000000DF R	    mov DWORD PTR [song1Bounds.left], edx
 0000010E  8B 48 04		    mov ecx, DWORD PTR [eax+4]
 00000111  89 0D 000000E3 R	    mov DWORD PTR [song1Bounds.top], ecx
 00000117  8B 50 08		    mov edx, DWORD PTR [eax+8]
 0000011A  89 15 000000E7 R	    mov DWORD PTR [song1Bounds._width], edx
 00000120  8B 40 0C		    mov eax, DWORD PTR [eax+12]
 00000123  A3 000000EB R	    mov DWORD PTR [song1Bounds.height], eax

 00000128  83 C4 10		    add esp, 16
				    
				    ; Adjust position
 0000012B  F3/ 0F 10 05		    movss xmm0, DWORD PTR [window_realWidth]
	   0000011F R
 00000133  F3/ 0F 5C 05		    subss xmm0, DWORD PTR [song1Bounds._width]
	   000000E7 R
 0000013B  F3/ 0F 10 0D		    movss xmm1, DWORD PTR [two]
	   000001B3 R
 00000143  F3/ 0F 5E C1		    divss xmm0, xmm1
 00000147  F3/ 0F 11 44 24	    movss DWORD PTR [esp-8], xmm0
	   F8
				    
 0000014D  F3/ 0F 10 05		    movss xmm0, DWORD PTR [const_160]
	   000001B7 R
 00000155  F3/ 0F 11 44 24	    movss DWORD PTR [esp-4], xmm0
	   FC

 0000015B  8B F4		    mov esi, esp

 0000015D  FF 76 FC		    push DWORD PTR [esi-4] ; y (200.0)
 00000160  FF 76 F8		    push DWORD PTR [esi-8] ; x (centered)
 00000163  FF 35 000000C3 R	    push DWORD PTR [song1Text]
 00000169  E8 00000000 E	    call sfText_setPosition
 0000016E  83 C4 0C		    add esp, 12

 00000171  C3			    ret
 00000172			setup_song1_text ENDP

				; 設定Song2文字
 00000172			setup_song2_text PROC
				    ; Create font
 00000172  68 00000061 R	    push offset font_path
 00000177  E8 00000000 E	    call sfFont_createFromFile
 0000017C  83 C4 04		    add esp, 4
 0000017F  A3 000000BF R	    mov font, eax
				    
				    ; Create text object
 00000184  E8 00000000 E	    call sfText_create
 00000189  A3 000000C7 R	    mov DWORD PTR [song2Text], eax
				    
				    ; Set font
 0000018E  FF 35 000000BF R	    push font
 00000194  A1 000000C7 R	    mov eax, DWORD PTR [song2Text]
 00000199  50			    push eax
 0000019A  E8 00000000 E	    call sfText_setFont
 0000019F  83 C4 08		    add esp, 8
				    
				    ; Set string
 000001A2  68 00000098 R	    push offset song2_string
 000001A7  A1 000000C7 R	    mov eax, DWORD PTR [song2Text]
 000001AC  50			    push eax
 000001AD  E8 00000000 E	    call sfText_setString
 000001B2  83 C4 08		    add esp, 8
				    
				    ; Set character size
 000001B5  6A 20		    push 32
 000001B7  A1 000000C7 R	    mov eax, DWORD PTR [song2Text]
 000001BC  50			    push eax
 000001BD  E8 00000000 E	    call sfText_setCharacterSize
 000001C2  83 C4 08		    add esp, 8
				    
				    ; Set fill color
 000001C5  FF 35 00000163 R	    push black_color
 000001CB  A1 000000C7 R	    mov eax, DWORD PTR [song2Text]
 000001D0  50			    push eax
 000001D1  E8 00000000 E	    call sfText_setFillColor
 000001D6  83 C4 08		    add esp, 8
				        
				    ; Set position
 000001D9  83 EC 10		    sub esp, 16
 000001DC  8D 04 24		    lea eax, [esp]

 000001DF  FF 35 000000C7 R	    push DWORD PTR [song2Text]
 000001E5  50			    push eax
 000001E6  E8 00000000 E	    call sfText_getLocalBounds
 000001EB  83 C4 08		    add esp, 8

 000001EE  8B 10		    mov edx, DWORD PTR [eax]
 000001F0  89 15 000000EF R	    mov DWORD PTR [song2Bounds.left], edx
 000001F6  8B 48 04		    mov ecx, DWORD PTR [eax+4]
 000001F9  89 0D 000000F3 R	    mov DWORD PTR [song2Bounds.top], ecx
 000001FF  8B 50 08		    mov edx, DWORD PTR [eax+8]
 00000202  89 15 000000F7 R	    mov DWORD PTR [song2Bounds._width], edx
 00000208  8B 40 0C		    mov eax, DWORD PTR [eax+12]
 0000020B  A3 000000FB R	    mov DWORD PTR [song2Bounds.height], eax

 00000210  83 C4 10		    add esp, 16
				    
				    ; Adjust position
 00000213  F3/ 0F 10 05		    movss xmm0, DWORD PTR [window_realWidth]
	   0000011F R
 0000021B  F3/ 0F 5C 05		    subss xmm0, DWORD PTR [song2Bounds._width]
	   000000F7 R
 00000223  F3/ 0F 10 0D		    movss xmm1, DWORD PTR [two]
	   000001B3 R
 0000022B  F3/ 0F 5E C1		    divss xmm0, xmm1
 0000022F  F3/ 0F 11 44 24	    movss DWORD PTR [esp-8], xmm0
	   F8
				    
 00000235  F3/ 0F 10 05		    movss xmm0, DWORD PTR [const_260]
	   000001BB R
 0000023D  F3/ 0F 11 44 24	    movss DWORD PTR [esp-4], xmm0
	   FC

 00000243  8B F4		    mov esi, esp

 00000245  FF 76 FC		    push DWORD PTR [esi-4] ; y (200.0)
 00000248  FF 76 F8		    push DWORD PTR [esi-8] ; x (centered)
 0000024B  FF 35 000000C7 R	    push DWORD PTR [song2Text]
 00000251  E8 00000000 E	    call sfText_setPosition
 00000256  83 C4 0C		    add esp, 12

 00000259  C3			    ret
 0000025A			setup_song2_text ENDP

				; 設定Song3文字
 0000025A			setup_song3_text PROC
				    ; Create font
 0000025A  68 00000061 R	    push offset font_path
 0000025F  E8 00000000 E	    call sfFont_createFromFile
 00000264  83 C4 04		    add esp, 4
 00000267  A3 000000BF R	    mov font, eax
				    
				    ; Create text object
 0000026C  E8 00000000 E	    call sfText_create
 00000271  A3 000000CB R	    mov DWORD PTR [song3Text], eax
				    
				    ; Set font
 00000276  FF 35 000000BF R	    push font
 0000027C  A1 000000CB R	    mov eax, DWORD PTR [song3Text]
 00000281  50			    push eax
 00000282  E8 00000000 E	    call sfText_setFont
 00000287  83 C4 08		    add esp, 8
				    
				    ; Set string
 0000028A  68 0000009F R	    push offset song3_string
 0000028F  A1 000000CB R	    mov eax, DWORD PTR [song3Text]
 00000294  50			    push eax
 00000295  E8 00000000 E	    call sfText_setString
 0000029A  83 C4 08		    add esp, 8
				    
				    ; Set character size
 0000029D  6A 20		    push 32
 0000029F  A1 000000CB R	    mov eax, DWORD PTR [song3Text]
 000002A4  50			    push eax
 000002A5  E8 00000000 E	    call sfText_setCharacterSize
 000002AA  83 C4 08		    add esp, 8
				    
				    ; Set fill color
 000002AD  FF 35 00000163 R	    push black_color
 000002B3  A1 000000CB R	    mov eax, DWORD PTR [song3Text]
 000002B8  50			    push eax
 000002B9  E8 00000000 E	    call sfText_setFillColor
 000002BE  83 C4 08		    add esp, 8
				       
				    ; Set position
 000002C1  83 EC 10		    sub esp, 16
 000002C4  8D 04 24		    lea eax, [esp]

 000002C7  FF 35 000000CB R	    push DWORD PTR [song3Text]
 000002CD  50			    push eax
 000002CE  E8 00000000 E	    call sfText_getLocalBounds
 000002D3  83 C4 08		    add esp, 8

 000002D6  8B 10		    mov edx, DWORD PTR [eax]
 000002D8  89 15 000000FF R	    mov DWORD PTR [song3Bounds.left], edx
 000002DE  8B 48 04		    mov ecx, DWORD PTR [eax+4]
 000002E1  89 0D 00000103 R	    mov DWORD PTR [song3Bounds.top], ecx
 000002E7  8B 50 08		    mov edx, DWORD PTR [eax+8]
 000002EA  89 15 00000107 R	    mov DWORD PTR [song3Bounds._width], edx
 000002F0  8B 40 0C		    mov eax, DWORD PTR [eax+12]
 000002F3  A3 0000010B R	    mov DWORD PTR [song3Bounds.height], eax

 000002F8  83 C4 10		    add esp, 16
				    
				    ; Adjust position
 000002FB  F3/ 0F 10 05		    movss xmm0, DWORD PTR [window_realWidth]
	   0000011F R
 00000303  F3/ 0F 5C 05		    subss xmm0, DWORD PTR [song3Bounds._width]
	   00000107 R
 0000030B  F3/ 0F 10 0D		    movss xmm1, DWORD PTR [two]
	   000001B3 R
 00000313  F3/ 0F 5E C1		    divss xmm0, xmm1
 00000317  F3/ 0F 11 44 24	    movss DWORD PTR [esp-8], xmm0
	   F8
				    
 0000031D  F3/ 0F 10 05		    movss xmm0, DWORD PTR [const_360]
	   000001BF R
 00000325  F3/ 0F 11 44 24	    movss DWORD PTR [esp-4], xmm0
	   FC

 0000032B  8B F4		    mov esi, esp

 0000032D  FF 76 FC		    push DWORD PTR [esi-4] ; y (200.0)
 00000330  FF 76 F8		    push DWORD PTR [esi-8] ; x (centered)
 00000333  FF 35 000000CB R	    push DWORD PTR [song3Text]
 00000339  E8 00000000 E	    call sfText_setPosition
 0000033E  83 C4 0C		    add esp, 12

 00000341  C3			    ret
 00000342			setup_song3_text ENDP

				; 設定instruction文字
 00000342			setup_instruction_text PROC
				    ; Create font
 00000342  68 00000061 R	    push offset font_path
 00000347  E8 00000000 E	    call sfFont_createFromFile
 0000034C  83 C4 04		    add esp, 4
 0000034F  A3 000000BF R	    mov font, eax
				    
				    ; Create text object
 00000354  E8 00000000 E	    call sfText_create
 00000359  A3 000000CF R	    mov DWORD PTR [instructionText], eax
				    
				    ; Set font
 0000035E  FF 35 000000BF R	    push font
 00000364  A1 000000CF R	    mov eax, DWORD PTR [instructionText]
 00000369  50			    push eax
 0000036A  E8 00000000 E	    call sfText_setFont
 0000036F  83 C4 08		    add esp, 8
				    
				    ; Set string
 00000372  68 000000A6 R	    push offset instruction_string
 00000377  A1 000000CF R	    mov eax, DWORD PTR [instructionText]
 0000037C  50			    push eax
 0000037D  E8 00000000 E	    call sfText_setString
 00000382  83 C4 08		    add esp, 8
				    
				    ; Set character size
 00000385  6A 20		    push 32
 00000387  A1 000000CF R	    mov eax, DWORD PTR [instructionText]
 0000038C  50			    push eax
 0000038D  E8 00000000 E	    call sfText_setCharacterSize
 00000392  83 C4 08		    add esp, 8
				    
				    ; Set fill color
 00000395  FF 35 00000163 R	    push black_color
 0000039B  A1 000000CF R	    mov eax, DWORD PTR [instructionText]
 000003A0  50			    push eax
 000003A1  E8 00000000 E	    call sfText_setFillColor
 000003A6  83 C4 08		    add esp, 8
				    
				    ; Set position
 000003A9  83 EC 10		    sub esp, 16
 000003AC  8D 04 24		    lea eax, [esp]

 000003AF  FF 35 000000CF R	    push DWORD PTR [instructionText]
 000003B5  50			    push eax
 000003B6  E8 00000000 E	    call sfText_getLocalBounds
 000003BB  83 C4 08		    add esp, 8

 000003BE  8B 10		    mov edx, DWORD PTR [eax]
 000003C0  89 15 0000010F R	    mov DWORD PTR [instructionBounds.left], edx
 000003C6  8B 48 04		    mov ecx, DWORD PTR [eax+4]
 000003C9  89 0D 00000113 R	    mov DWORD PTR [instructionBounds.top], ecx
 000003CF  8B 50 08		    mov edx, DWORD PTR [eax+8]
 000003D2  89 15 00000117 R	    mov DWORD PTR [instructionBounds._width], edx
 000003D8  8B 40 0C		    mov eax, DWORD PTR [eax+12]
 000003DB  A3 0000011B R	    mov DWORD PTR [instructionBounds.height], eax

 000003E0  83 C4 10		    add esp, 16
				    
				    ; Adjust position
 000003E3  F3/ 0F 10 05		    movss xmm0, DWORD PTR [window_realWidth]
	   0000011F R
 000003EB  F3/ 0F 5C 05		    subss xmm0, DWORD PTR [instructionBounds._width]
	   00000117 R
 000003F3  F3/ 0F 10 0D		    movss xmm1, DWORD PTR [two]
	   000001B3 R
 000003FB  F3/ 0F 5E C1		    divss xmm0, xmm1
 000003FF  F3/ 0F 11 44 24	    movss DWORD PTR [esp-8], xmm0
	   F8
				    
 00000405  F3/ 0F 10 05		    movss xmm0, DWORD PTR [const_550]
	   000001C3 R
 0000040D  F3/ 0F 11 44 24	    movss DWORD PTR [esp-4], xmm0
	   FC

 00000413  8B F4		    mov esi, esp

 00000415  FF 76 FC		    push DWORD PTR [esi-4] ; y (200.0)
 00000418  FF 76 F8		    push DWORD PTR [esi-8] ; x (centered)
 0000041B  FF 35 000000CF R	    push DWORD PTR [instructionText]
 00000421  E8 00000000 E	    call sfText_setPosition
 00000426  83 C4 0C		    add esp, 12

 00000429  C3			    ret
 0000042A			setup_instruction_text ENDP

				; 創建按鈕
 0000042A			create_button PROC
				    
 0000042A  55			    push ebp
 0000042B  8B EC		    mov ebp, esp

				    ; 呼叫函數創建矩形
 0000042D  E8 00000000 E	    call sfRectangleShape_create
 00000432  8B F0		    mov esi, eax  ; 儲存矩形物件

				    ; 創建位置向量 !程式位置存在ebp+4
 00000434  FF 75 0C		    push dword ptr [ebp+12] ; y 座標
 00000437  FF 75 08		    push dword ptr [ebp+8]  ; x 座標
 0000043A  56			    push esi
 0000043B  E8 00000000 E	    call sfRectangleShape_setPosition
 00000440  83 C4 0C		    add esp, 12

				    ; 設定大小
 00000443  FF 75 14		    push dword ptr [ebp+20] ; 高度
 00000446  FF 75 10		    push dword ptr [ebp+16] ; 寬度
 00000449  56			    push esi
 0000044A  E8 00000000 E	    call sfRectangleShape_setSize
 0000044F  83 C4 0C		    add esp, 12

				    ; 設定填充顏色
 00000452  FF 35 00000153 R	    push gray_color
 00000458  56			    push esi
 00000459  E8 00000000 E	    call sfRectangleShape_setFillColor
 0000045E  83 C4 08		    add esp, 8

				    ; 設定邊框顏色
 00000461  FF 35 00000157 R	    push dark_gray_color
 00000467  56			    push esi
 00000468  E8 00000000 E	    call sfRectangleShape_setOutlineColor
 0000046D  83 C4 08		    add esp, 8

				    ; 設定邊框厚度  
 00000470  83 EC 04		    sub esp, 4
 00000473  F3/ 0F 10 05		    movss xmm0, dword ptr [outline_thickness]
	   000001AF R
 0000047B  F3/ 0F 11 04 24	    movss dword ptr [esp], xmm0
 00000480  56			    push esi
 00000481  E8 00000000 E	    call sfRectangleShape_setOutlineThickness
 00000486  83 C4 08		    add esp, 8

				    ; 返回按鈕物件
 00000489  8B C6		    mov eax, esi

 0000048B  5D			    pop ebp
 0000048C  C3			    ret
 0000048D			create_button ENDP

				; 初始化按鈕
 0000048D			init_buttons PROC
				    ; 初始化按鈕1
 0000048D  51			    push ecx
 0000048E  F3/ 0F 10 05		    movss xmm0, dword ptr [button_height]
	   000001A7 R
 00000496  F3/ 0F 11 04 24	    movss dword ptr [esp], xmm0

 0000049B  51			    push ecx
 0000049C  F3/ 0F 10 05		    movss xmm0, dword ptr [button_width]
	   0000019F R
 000004A4  F3/ 0F 11 04 24	    movss dword ptr [esp], xmm0

 000004A9  51			    push ecx
 000004AA  F3/ 0F 10 05		    movss xmm0, dword ptr [button1_y]
	   0000018B R
 000004B2  F3/ 0F 11 04 24	    movss dword ptr [esp], xmm0

 000004B7  51			    push ecx
 000004B8  F3/ 0F 10 05		    movss xmm0, dword ptr [button_x]
	   00000187 R
 000004C0  F3/ 0F 11 04 24	    movss dword ptr [esp], xmm0

 000004C5  E8 FFFFFF60		    call create_button
 000004CA  83 C4 10		    add esp, 16
 000004CD  A3 00000167 R	    mov dword ptr [button1_shape], eax
 000004D2  C7 05 0000016B R	    mov dword ptr [button1_shape.state], BUTTON_STATE_NORMAL
	   00000000

				    ; 初始化按鈕2
 000004DC  51			    push ecx
 000004DD  F3/ 0F 10 05		    movss xmm0, dword ptr [button_height]
	   000001A7 R
 000004E5  F3/ 0F 11 04 24	    movss dword ptr [esp], xmm0

 000004EA  51			    push ecx
 000004EB  F3/ 0F 10 05		    movss xmm0, dword ptr [button_width]
	   0000019F R
 000004F3  F3/ 0F 11 04 24	    movss dword ptr [esp], xmm0

 000004F8  51			    push ecx
 000004F9  F3/ 0F 10 05		    movss xmm0, dword ptr [button2_y]
	   0000018F R
 00000501  F3/ 0F 11 04 24	    movss dword ptr [esp], xmm0

 00000506  51			    push ecx
 00000507  F3/ 0F 10 05		    movss xmm0, dword ptr [button_x]
	   00000187 R
 0000050F  F3/ 0F 11 04 24	    movss dword ptr [esp], xmm0

 00000514  E8 FFFFFF11		    call create_button
 00000519  83 C4 10		    add esp, 16
 0000051C  A3 0000016F R	    mov dword ptr [button2_shape], eax
 00000521  C7 05 00000173 R	    mov dword ptr [button2_shape.state], BUTTON_STATE_NORMAL
	   00000000

				    ; 初始化按鈕3
 0000052B  51			    push ecx
 0000052C  F3/ 0F 10 05		    movss xmm0, dword ptr [button_height]
	   000001A7 R
 00000534  F3/ 0F 11 04 24	    movss dword ptr [esp], xmm0

 00000539  51			    push ecx
 0000053A  F3/ 0F 10 05		    movss xmm0, dword ptr [button_width]
	   0000019F R
 00000542  F3/ 0F 11 04 24	    movss dword ptr [esp], xmm0

 00000547  51			    push ecx
 00000548  F3/ 0F 10 05		    movss xmm0, dword ptr [button3_y]
	   00000193 R
 00000550  F3/ 0F 11 04 24	    movss dword ptr [esp], xmm0

 00000555  51			    push ecx
 00000556  F3/ 0F 10 05		    movss xmm0, dword ptr [button_x]
	   00000187 R
 0000055E  F3/ 0F 11 04 24	    movss dword ptr [esp], xmm0

 00000563  E8 FFFFFEC2		    call create_button
 00000568  83 C4 10		    add esp, 16
 0000056B  A3 00000177 R	    mov dword ptr [button3_shape], eax
 00000570  C7 05 0000017B R	    mov dword ptr [button3_shape.state], BUTTON_STATE_NORMAL
	   00000000

				    ; 初始化介紹框
 0000057A  51			    push ecx
 0000057B  F3/ 0F 10 05		    movss xmm0, dword ptr [instruction_height]
	   000001AB R
 00000583  F3/ 0F 11 04 24	    movss dword ptr [esp], xmm0

 00000588  51			    push ecx
 00000589  F3/ 0F 10 05		    movss xmm0, dword ptr [instruction_width]
	   000001A3 R
 00000591  F3/ 0F 11 04 24	    movss dword ptr [esp], xmm0

 00000596  51			    push ecx
 00000597  F3/ 0F 10 05		    movss xmm0, dword ptr [instruction_y]
	   0000019B R
 0000059F  F3/ 0F 11 04 24	    movss dword ptr [esp], xmm0

 000005A4  51			    push ecx
 000005A5  F3/ 0F 10 05		    movss xmm0, dword ptr [instruction_x]
	   00000197 R
 000005AD  F3/ 0F 11 04 24	    movss dword ptr [esp], xmm0

 000005B2  E8 FFFFFE73		    call create_button
 000005B7  83 C4 10		    add esp, 16
 000005BA  A3 0000017F R	    mov dword ptr [instruction_shape], eax
 000005BF  C7 05 00000183 R	    mov dword ptr [instruction_shape.state], BUTTON_STATE_NORMAL
	   00000000

				    ; 修改底部長方形顏色和邊框
 000005C9  FF 35 0000015F R	    push beige_color  ; 鵝黃色
 000005CF  FF 35 0000017F R	    push dword ptr [instruction_shape]
 000005D5  E8 00000000 E	    call sfRectangleShape_setFillColor
 000005DA  83 C4 08		    add esp, 8

 000005DD  FF 35 00000163 R	    push black_color  ; 黑色邊框
 000005E3  FF 35 0000017F R	    push dword ptr [instruction_shape]
 000005E9  E8 00000000 E	    call sfRectangleShape_setOutlineColor
 000005EE  83 C4 08		    add esp, 8

 000005F1  C3			    ret
 000005F2			init_buttons ENDP

				; 釋放資源
 000005F2			cleanup PROC
				    ; push window
				    ; call sfRenderWindow_destroy

 000005F2  FF 35 000000BB R	    push bgMusic
 000005F8  E8 00000000 E	    call sfMusic_destroy
 000005FD  83 C4 04		    add esp, 4

 00000600  FF 35 000000B7 R	    push bgSprite
 00000606  E8 00000000 E	    call sfSprite_destroy
 0000060B  83 C4 04		    add esp, 4

 0000060E  FF 35 000000B3 R	    push bgTexture
 00000614  E8 00000000 E	    call sfTexture_destroy
 00000619  83 C4 04		    add esp, 4

 0000061C  FF 35 000000C3 R	    push song1Text
 00000622  E8 00000000 E	    call sfText_destroy
 00000627  83 C4 04		    add esp, 4

 0000062A  FF 35 000000C7 R	    push song2Text
 00000630  E8 00000000 E	    call sfText_destroy
 00000635  83 C4 04		    add esp, 4

 00000638  FF 35 000000CB R	    push song3Text
 0000063E  E8 00000000 E	    call sfText_destroy
 00000643  83 C4 04		    add esp, 4

 00000646  FF 35 000000CF R	    push instructionText
 0000064C  E8 00000000 E	    call sfText_destroy
 00000651  83 C4 04		    add esp, 4

 00000654  FF 35 000000BF R	    push font
 0000065A  E8 00000000 E	    call sfFont_destroy
 0000065F  83 C4 04		    add esp, 4 
				    
 00000662  FF 35 00000167 R	    push dword ptr [button1_shape]
 00000668  E8 00000000 E	    call sfRectangleShape_destroy
 0000066D  83 C4 04		    add esp, 4
				    
 00000670  FF 35 0000016F R	    push dword ptr [button2_shape]
 00000676  E8 00000000 E	    call sfRectangleShape_destroy
 0000067B  83 C4 04		    add esp, 4
				    
 0000067E  FF 35 00000177 R	    push dword ptr [button3_shape]
 00000684  E8 00000000 E	    call sfRectangleShape_destroy
 00000689  83 C4 04		    add esp, 4

 0000068C  FF 35 0000017F R	    push dword ptr [instruction_shape]
 00000692  E8 00000000 E	    call sfRectangleShape_destroy
 00000697  83 C4 04		    add esp, 4
				   
 0000069A  C3			    ret
 0000069B			cleanup ENDP

 0000069B			select_music_page PROC window:DWORD

				   ; 載入背景
 0000069E  E8 FFFFF95D		    call @load_background
 000006A3  85 C0		    test eax, eax
 000006A5  0F 84 0000029D	    jz @exit_program

				    ; 設定按鈕
 000006AB  E8 FFFFFDDD		    call init_buttons

				    ; 設定提示文字
 000006B0  E8 FFFFF9D5		    call setup_song1_text
 000006B5  E8 FFFFFAB8		    call setup_song2_text
 000006BA  E8 FFFFFB9B		    call setup_song3_text
 000006BF  E8 FFFFFC7E		    call setup_instruction_text

 000006C4			@main_loop:
				    
 000006C4  8B 45 08		    mov eax, DWORD PTR [window]
 000006C7  50			    push eax
 000006C8  E8 00000000 E	    call sfRenderWindow_isOpen
 000006CD  83 C4 04		    add esp, 4
 000006D0  85 C0		    test eax, eax
 000006D2  0F 84 00000270	    je @exit_program

 000006D8			    @event_loop:
				        ; 事件處理
 000006D8  8D 35 00000123 R	        lea esi, event
 000006DE  56			        push esi
 000006DF  8B 45 08		        mov eax, window
 000006E2  50			        push eax
 000006E3  E8 00000000 E	        call sfRenderWindow_pollEvent
 000006E8  83 C4 08		        add esp, 8
 000006EB  85 C0		        test eax, eax
 000006ED  0F 84 00000179	        je @render_window
				    
				        ; 檢查關閉事件
 000006F3  83 3E 00		        cmp dword ptr [esi].sfEvent._type, sfEvtClosed
 000006F6  0F 84 00000242	        je @end

				        ; 檢查滑鼠點擊
 000006FC  83 3E 09		        cmp dword ptr [esi].sfEvent._type, sfEvtMouseButtonPressed
 000006FF  0F 84 00000167	        je @render_window
				    
				        ; 檢查鍵盤事件
 00000705  83 3E 05		        cmp dword ptr [esi].sfEvent._type, sfEvtKeyPressed
 00000708  74 02		        je @check_key_press

 0000070A  EB CC		        jmp @event_loop

 0000070C			        @check_key_press:
 0000070C  83 7E 04 00		            cmp dword ptr [esi+4], sfKeyA
 00000710  74 1C		            je @key_1_pressed

 00000712  83 7E 04 12		            cmp dword ptr [esi+4], sfKeyS
 00000716  74 66		            je @key_2_pressed

 00000718  83 7E 04 03		            cmp dword ptr [esi+4], sfKeyD
 0000071C  0F 84 000000AC	            je @key_3_pressed

 00000722  83 7E 04 3A		            cmp dword ptr [esi+4], sfKeyEnter
 00000726  0F 84 000000F2	            je @check_enter     
				            
 0000072C  EB AA		            jmp @event_loop

 0000072E			@key_1_pressed:
 0000072E  C7 05 000000D3 R	    mov dword ptr [KeyA_state], 1 ; 設定狀態已按下 
	   00000001
 00000738  E8 FFFFF8F9		    call play_music1

 0000073D  FF 35 0000015B R	    push light_gray_color
 00000743  FF 35 00000167 R	    push DWORD PTR [button1_shape]
 00000749  E8 00000000 E	    call sfRectangleShape_setFillColor
 0000074E  83 C4 08		    add esp, 8

 00000751  FF 35 00000153 R	    push gray_color
 00000757  FF 35 0000016F R	    push DWORD PTR [button2_shape]
 0000075D  E8 00000000 E	    call sfRectangleShape_setFillColor
 00000762  83 C4 08		    add esp, 8

 00000765  FF 35 00000153 R	    push gray_color
 0000076B  FF 35 00000177 R	    push DWORD PTR [button3_shape]
 00000771  E8 00000000 E	    call sfRectangleShape_setFillColor
 00000776  83 C4 08		    add esp, 8
 00000779  E9 FFFFFF5A		    jmp @event_loop

 0000077E			@key_2_pressed:
 0000077E  C7 05 000000D7 R	    mov dword ptr [KeyS_state], 1 ; 設定狀態已按下
	   00000001
 00000788  E8 FFFFF8C5		    call play_music2

 0000078D  FF 35 0000015B R	    push light_gray_color
 00000793  FF 35 0000016F R	    push DWORD PTR [button2_shape]
 00000799  E8 00000000 E	    call sfRectangleShape_setFillColor
 0000079E  83 C4 08		    add esp, 8

 000007A1  FF 35 00000153 R	    push gray_color
 000007A7  FF 35 00000167 R	    push DWORD PTR [button1_shape]
 000007AD  E8 00000000 E	    call sfRectangleShape_setFillColor
 000007B2  83 C4 08		    add esp, 8

 000007B5  FF 35 00000153 R	    push gray_color
 000007BB  FF 35 00000177 R	    push DWORD PTR [button3_shape]
 000007C1  E8 00000000 E	    call sfRectangleShape_setFillColor
 000007C6  83 C4 08		    add esp, 8
 000007C9  E9 FFFFFF0A		    jmp @event_loop

 000007CE			@key_3_pressed:
 000007CE  C7 05 000000DB R	    mov dword ptr [KeyD_state], 1 ; 設定狀態已按下
	   00000001
 000007D8  E8 FFFFF891		    call play_music3

 000007DD  FF 35 0000015B R	    push light_gray_color
 000007E3  FF 35 00000177 R	    push DWORD PTR [button3_shape]
 000007E9  E8 00000000 E	    call sfRectangleShape_setFillColor
 000007EE  83 C4 08		    add esp, 8

 000007F1  FF 35 00000153 R	    push gray_color
 000007F7  FF 35 00000167 R	    push DWORD PTR [button1_shape]
 000007FD  E8 00000000 E	    call sfRectangleShape_setFillColor
 00000802  83 C4 08		    add esp, 8

 00000805  FF 35 00000153 R	    push gray_color
 0000080B  FF 35 0000016F R	    push DWORD PTR [button2_shape]
 00000811  E8 00000000 E	    call sfRectangleShape_setFillColor
 00000816  83 C4 08		    add esp, 8
 00000819  E9 FFFFFEBA		    jmp @event_loop

 0000081E			@check_enter:
 0000081E  83 3D 000000D3 R	    cmp dword ptr [KeyA_state], 1 
	   01
 00000825  74 18		    je @keyA_enter

 00000827  83 3D 000000D7 R	    cmp dword ptr [KeyS_state], 1 
	   01
 0000082E  74 1E		    je @keyS_enter

 00000830  83 3D 000000DB R	    cmp dword ptr [KeyD_state], 1 
	   01
 00000837  74 24		    je @keyD_enter

 00000839  0F 85 FFFFFE99	    jne @event_loop              

 0000083F			@keyA_enter:
 0000083F  C7 05 00000000 E	    mov DWORD PTR [currentPage], 0
	   00000000
 00000849  E9 000000FA		    jmp @exit_program

 0000084E			@keyS_enter:
 0000084E  C7 05 00000000 E	    mov DWORD PTR [currentPage], 0
	   00000000
 00000858  E9 000000EB		    jmp @exit_program

 0000085D			@keyD_enter:
 0000085D  C7 05 00000000 E	    mov DWORD PTR [currentPage], 0
	   00000000
 00000867  E9 000000DC		    jmp @exit_program
				    
 0000086C			@render_window: 
				    ; 清除視窗
 0000086C  FF 35 00000163 R	    push black_color
 00000872  FF 75 08		    push window
 00000875  E8 00000000 E	    call sfRenderWindow_clear
 0000087A  83 C4 08		    add esp, 8
				    
				    ; 繪製背景
 0000087D  6A 00		    push 0
 0000087F  A1 000000B7 R	    mov eax, DWORD PTR [bgSprite]
 00000884  50			    push eax
 00000885  8B 4D 08		    mov ecx, DWORD PTR [window]
 00000888  51			    push ecx
 00000889  E8 00000000 E	    call sfRenderWindow_drawSprite
 0000088E  83 C4 0C		    add esp, 12

				    ; 繪製按鈕
 00000891  6A 00		    push 0
 00000893  A1 00000167 R	    mov eax, DWORD PTR [button1_shape]
 00000898  50			    push eax
 00000899  8B 4D 08		    mov ecx, DWORD PTR [window]
 0000089C  51			    push ecx
 0000089D  E8 00000000 E	    call sfRenderWindow_drawRectangleShape
 000008A2  83 C4 0C		    add esp, 12

 000008A5  6A 00		    push 0
 000008A7  A1 0000016F R	    mov eax, DWORD PTR [button2_shape]
 000008AC  50			    push eax
 000008AD  8B 4D 08		    mov ecx, DWORD PTR [window]
 000008B0  51			    push ecx
 000008B1  E8 00000000 E	    call sfRenderWindow_drawRectangleShape
 000008B6  83 C4 0C		    add esp, 12
				    
 000008B9  6A 00		    push 0
 000008BB  A1 00000177 R	    mov eax, DWORD PTR [button3_shape]
 000008C0  50			    push eax
 000008C1  8B 4D 08		    mov ecx, DWORD PTR [window]
 000008C4  51			    push ecx
 000008C5  E8 00000000 E	    call sfRenderWindow_drawRectangleShape
 000008CA  83 C4 0C		    add esp, 12

 000008CD  6A 00		    push 0
 000008CF  A1 0000017F R	    mov eax, DWORD PTR [instruction_shape]
 000008D4  50			    push eax
 000008D5  8B 4D 08		    mov ecx, DWORD PTR [window]
 000008D8  51			    push ecx
 000008D9  E8 00000000 E	    call sfRenderWindow_drawRectangleShape
 000008DE  83 C4 0C		    add esp, 12

				    ; 繪製song1
 000008E1  6A 00		    push 0
 000008E3  FF 35 000000C3 R	    push DWORD PTR [song1Text]
 000008E9  FF 75 08		    push DWORD PTR [window]
 000008EC  E8 00000000 E	    call sfRenderWindow_drawText
 000008F1  83 C4 0C		    add esp, 12

				    ; 繪製song2
 000008F4  6A 00		    push 0
 000008F6  FF 35 000000C7 R	    push DWORD PTR [song2Text]
 000008FC  FF 75 08		    push DWORD PTR [window]
 000008FF  E8 00000000 E	    call sfRenderWindow_drawText
 00000904  83 C4 0C		    add esp, 12

				    ; 繪製song3
 00000907  6A 00		    push 0
 00000909  FF 35 000000CB R	    push DWORD PTR [song3Text]
 0000090F  FF 75 08		    push DWORD PTR [window]
 00000912  E8 00000000 E	    call sfRenderWindow_drawText
 00000917  83 C4 0C		    add esp, 12

				    ; 繪製instruction
 0000091A  6A 00		    push 0
 0000091C  FF 35 000000CF R	    push DWORD PTR [instructionText]
 00000922  FF 75 08		    push DWORD PTR [window]
 00000925  E8 00000000 E	    call sfRenderWindow_drawText
 0000092A  83 C4 0C		    add esp, 12

				    ; 顯示視窗
 0000092D  8B 45 08		    mov eax, DWORD PTR [window]
 00000930  50			    push eax
 00000931  E8 00000000 E	    call sfRenderWindow_display
 00000936  83 C4 04		    add esp, 4

 00000939  E9 FFFFFD86		    jmp @main_loop

 0000093E			@end:
 0000093E  C7 05 00000000 E	    mov DWORD PTR [currentPage], -1
	   FFFFFFFF

 00000948			@exit_program:
				    ;call cleanup
 00000948  33 C0		    xor eax, eax
				    ret

 0000094C			select_music_page ENDP

				END select_music_page
Microsoft (R) Macro Assembler Version 14.41.34120.0	    12/13/24 22:10:49
select_music_page.asm					     Symbols 2 - 1




Structures and Unions:

                N a m e                  Size
                                         Offset      Type

Button . . . . . . . . . . . . .	 00000008
  shape  . . . . . . . . . . . .	 00000000	 DWord
  state  . . . . . . . . . . . .	 00000004	 DWord
key  . . . . . . . . . . . . . .	 00000014
  code . . . . . . . . . . . . .	 00000000	 DWord
  alt  . . . . . . . . . . . . .	 00000004	 DWord
  control  . . . . . . . . . . .	 00000008	 DWord
  shift  . . . . . . . . . . . .	 0000000C	 DWord
  system . . . . . . . . . . . .	 00000010	 DWord
mouseButton  . . . . . . . . . .	 0000000C
  button . . . . . . . . . . . .	 00000000	 DWord
  x  . . . . . . . . . . . . . .	 00000004	 DWord
  y  . . . . . . . . . . . . . .	 00000008	 DWord
sfColor  . . . . . . . . . . . .	 00000004
  r  . . . . . . . . . . . . . .	 00000000	 Byte
  g  . . . . . . . . . . . . . .	 00000001	 Byte
  b  . . . . . . . . . . . . . .	 00000002	 Byte
  a  . . . . . . . . . . . . . .	 00000003	 Byte
sfEvent  . . . . . . . . . . . .	 00000030
  _type  . . . . . . . . . . . .	 00000000	 DWord
  _size  . . . . . . . . . . . .	 00000004	 DWord
  mouse  . . . . . . . . . . . .	 00000008	 
  _key . . . . . . . . . . . . .	 00000014	 
  mouseMove  . . . . . . . . . .	 00000028	 QWord
sfFloatRect  . . . . . . . . . .	 00000010
  left . . . . . . . . . . . . .	 00000000	 DWord
  top  . . . . . . . . . . . . .	 00000004	 DWord
  _width . . . . . . . . . . . .	 00000008	 DWord
  height . . . . . . . . . . . .	 0000000C	 DWord
sfVector2f . . . . . . . . . . .	 00000008
  x  . . . . . . . . . . . . . .	 00000000	 DWord
  y  . . . . . . . . . . . . . .	 00000004	 DWord
sfVector2i . . . . . . . . . . .	 00000008
  x  . . . . . . . . . . . . . .	 00000000	 DWord
  y  . . . . . . . . . . . . . .	 00000004	 DWord
sfVideoMode  . . . . . . . . . .	 0000000C
  _width . . . . . . . . . . . .	 00000000	 DWord
  height . . . . . . . . . . . .	 00000004	 DWord
  bpp  . . . . . . . . . . . . .	 00000008	 DWord


Segments and Groups:

                N a m e                 Size     Length   Align   Combine Class

FLAT . . . . . . . . . . . . . .	GROUP
_DATA  . . . . . . . . . . . . .	32 Bit	 000001C7 Para	  Public  'DATA'	
_TEXT  . . . . . . . . . . . . .	32 Bit	 0000094C Para	  Public  'CODE'	


Procedures, parameters, and locals:

                N a m e                 Type     Value    Attr

@load_background . . . . . . . .	P Near	 00000000 _TEXT	Length= 00000036 Public C
cleanup  . . . . . . . . . . . .	P Near	 000005F2 _TEXT	Length= 000000A9 Public C
create_button  . . . . . . . . .	P Near	 0000042A _TEXT	Length= 00000063 Public C
init_buttons . . . . . . . . . .	P Near	 0000048D _TEXT	Length= 00000165 Public C
play_music1  . . . . . . . . . .	P Near	 00000036 _TEXT	Length= 0000001C Public C
play_music2  . . . . . . . . . .	P Near	 00000052 _TEXT	Length= 0000001C Public C
play_music3  . . . . . . . . . .	P Near	 0000006E _TEXT	Length= 0000001C Public C
select_music_page  . . . . . . .	P Near	 0000069B _TEXT	Length= 000002B1 Public C
  window . . . . . . . . . . . .	DWord	 bp + 00000008
  @main_loop . . . . . . . . . .	L Near	 000006C4 _TEXT	
  @event_loop  . . . . . . . . .	L Near	 000006D8 _TEXT	
  @check_key_press . . . . . . .	L Near	 0000070C _TEXT	
  @key_1_pressed . . . . . . . .	L Near	 0000072E _TEXT	
  @key_2_pressed . . . . . . . .	L Near	 0000077E _TEXT	
  @key_3_pressed . . . . . . . .	L Near	 000007CE _TEXT	
  @check_enter . . . . . . . . .	L Near	 0000081E _TEXT	
  @keyA_enter  . . . . . . . . .	L Near	 0000083F _TEXT	
  @keyS_enter  . . . . . . . . .	L Near	 0000084E _TEXT	
  @keyD_enter  . . . . . . . . .	L Near	 0000085D _TEXT	
  @render_window . . . . . . . .	L Near	 0000086C _TEXT	
  @end . . . . . . . . . . . . .	L Near	 0000093E _TEXT	
  @exit_program  . . . . . . . .	L Near	 00000948 _TEXT	
setup_instruction_text . . . . .	P Near	 00000342 _TEXT	Length= 000000E8 Public C
setup_song1_text . . . . . . . .	P Near	 0000008A _TEXT	Length= 000000E8 Public C
setup_song2_text . . . . . . . .	P Near	 00000172 _TEXT	Length= 000000E8 Public C
setup_song3_text . . . . . . . .	P Near	 0000025A _TEXT	Length= 000000E8 Public C


Symbols:

                N a m e                 Type     Value    Attr

@CodeSize  . . . . . . . . . . .	Number	 00000000h   
@DataSize  . . . . . . . . . . .	Number	 00000000h   
@Interface . . . . . . . . . . .	Number	 00000001h   
@Model . . . . . . . . . . . . .	Number	 00000007h   
@code  . . . . . . . . . . . . .	Text   	 _TEXT
@data  . . . . . . . . . . . . .	Text   	 FLAT
@fardata?  . . . . . . . . . . .	Text   	 FLAT
@fardata . . . . . . . . . . . .	Text   	 FLAT
@stack . . . . . . . . . . . . .	Text   	 FLAT
BUTTON_STATE_NORMAL  . . . . . .	Number	 00000000h   
BUTTON_STATE_PRESSED . . . . . .	Number	 00000001h   
KeyA_state . . . . . . . . . . .	DWord	 000000D3 _DATA	
KeyD_state . . . . . . . . . . .	DWord	 000000DB _DATA	
KeyS_state . . . . . . . . . . .	DWord	 000000D7 _DATA	
beige_color  . . . . . . . . . .	sfColor	 0000015F _DATA	
bgMusic  . . . . . . . . . . . .	DWord	 000000BB _DATA	
bgSprite . . . . . . . . . . . .	DWord	 000000B7 _DATA	
bgTexture  . . . . . . . . . . .	DWord	 000000B3 _DATA	
bg_path  . . . . . . . . . . . .	Byte	 00000042 _DATA	
black_color  . . . . . . . . . .	sfColor	 00000163 _DATA	
button1_shape  . . . . . . . . .	Button	 00000167 _DATA	
button1_y  . . . . . . . . . . .	DWord	 0000018B _DATA	
button2_shape  . . . . . . . . .	Button	 0000016F _DATA	
button2_y  . . . . . . . . . . .	DWord	 0000018F _DATA	
button3_shape  . . . . . . . . .	Button	 00000177 _DATA	
button3_y  . . . . . . . . . . .	DWord	 00000193 _DATA	
button_height  . . . . . . . . .	DWord	 000001A7 _DATA	
button_width . . . . . . . . . .	DWord	 0000019F _DATA	
button_x . . . . . . . . . . . .	DWord	 00000187 _DATA	
const_160  . . . . . . . . . . .	DWord	 000001B7 _DATA	
const_260  . . . . . . . . . . .	DWord	 000001BB _DATA	
const_360  . . . . . . . . . . .	DWord	 000001BF _DATA	
const_550  . . . . . . . . . . .	DWord	 000001C3 _DATA	
currentPage  . . . . . . . . . .	DWord	 00000000 FLAT	External C
dark_gray_color  . . . . . . . .	sfColor	 00000157 _DATA	
event  . . . . . . . . . . . . .	sfEvent	 00000123 _DATA	
font_path  . . . . . . . . . . .	Byte	 00000061 _DATA	
font . . . . . . . . . . . . . .	DWord	 000000BF _DATA	
gray_color . . . . . . . . . . .	sfColor	 00000153 _DATA	
instructionBounds  . . . . . . .	sfFloatRect  0000010F _DATA	
instructionText  . . . . . . . .	DWord	 000000CF _DATA	
instruction_height . . . . . . .	DWord	 000001AB _DATA	
instruction_shape  . . . . . . .	Button	 0000017F _DATA	
instruction_string . . . . . . .	Byte	 000000A6 _DATA	
instruction_width  . . . . . . .	DWord	 000001A3 _DATA	
instruction_x  . . . . . . . . .	DWord	 00000197 _DATA	
instruction_y  . . . . . . . . .	DWord	 0000019B _DATA	
light_gray_color . . . . . . . .	sfColor	 0000015B _DATA	
music1_path  . . . . . . . . . .	Byte	 00000000 _DATA	
music2_path  . . . . . . . . . .	Byte	 00000016 _DATA	
music3_path  . . . . . . . . . .	Byte	 0000002C _DATA	
outline_thickness  . . . . . . .	DWord	 000001AF _DATA	
sfClose  . . . . . . . . . . . .	Number	 00000004h   
sfColor_fromRGBA . . . . . . . .	L Near	 00000000 FLAT	External C
sfColor_fromRGB  . . . . . . . .	L Near	 00000000 FLAT	External C
sfEvtClosed  . . . . . . . . . .	Number	 00000000h   
sfEvtGainedFocus . . . . . . . .	Number	 00000003h   
sfEvtKeyPressed  . . . . . . . .	Number	 00000005h   
sfEvtKeyReleased . . . . . . . .	Number	 00000006h   
sfEvtLostFocus . . . . . . . . .	Number	 00000002h   
sfEvtMouseButtonPressed  . . . .	Number	 00000009h   
sfEvtMouseButtonReleased . . . .	Number	 0000000Ah   
sfEvtMouseEntered  . . . . . . .	Number	 0000000Ch   
sfEvtMouseLeft . . . . . . . . .	Number	 0000000Dh   
sfEvtMouseMoved  . . . . . . . .	Number	 0000000Bh   
sfEvtMouseWheelMoved . . . . . .	Number	 00000007h   
sfEvtMouseWheelScrolled  . . . .	Number	 00000008h   
sfEvtResized . . . . . . . . . .	Number	 00000001h   
sfEvtTextEntered . . . . . . . .	Number	 00000004h   
sfFalse  . . . . . . . . . . . .	Number	 00000000h   
sfFont_createFromFile  . . . . .	L Near	 00000000 FLAT	External C
sfFont_destroy . . . . . . . . .	L Near	 00000000 FLAT	External C
sfFullscreen . . . . . . . . . .	Number	 00000008h   
sfKeyA . . . . . . . . . . . . .	Number	 00000000h   
sfKeyD . . . . . . . . . . . . .	Number	 00000003h   
sfKeyEnter . . . . . . . . . . .	Number	 0000003Ah   
sfKeyS . . . . . . . . . . . . .	Number	 00000012h   
sfMouseLeft  . . . . . . . . . .	Number	 00000000h   
sfMouseMiddle  . . . . . . . . .	Number	 00000002h   
sfMouseRight . . . . . . . . . .	Number	 00000001h   
sfMusic_createFromFile . . . . .	L Near	 00000000 FLAT	External C
sfMusic_destroy  . . . . . . . .	L Near	 00000000 FLAT	External C
sfMusic_play . . . . . . . . . .	L Near	 00000000 FLAT	External C
sfMusic_setLoop  . . . . . . . .	L Near	 00000000 FLAT	External C
sfMusic_stop . . . . . . . . . .	L Near	 00000000 FLAT	External C
sfNone . . . . . . . . . . . . .	Number	 00000000h   
sfRectangleShape_create  . . . .	L Near	 00000000 FLAT	External C
sfRectangleShape_destroy . . . .	L Near	 00000000 FLAT	External C
sfRectangleShape_setFillColor  .	L Near	 00000000 FLAT	External C
sfRectangleShape_setOutlineColor .	L Near	 00000000 FLAT	External C
sfRectangleShape_setOutlineThickness .	L Near	 00000000 FLAT	External C
sfRectangleShape_setPosition . .	L Near	 00000000 FLAT	External C
sfRectangleShape_setSize . . . .	L Near	 00000000 FLAT	External C
sfRenderWindow_clear . . . . . .	L Near	 00000000 FLAT	External C
sfRenderWindow_close . . . . . .	L Near	 00000000 FLAT	External C
sfRenderWindow_create  . . . . .	L Near	 00000000 FLAT	External C
sfRenderWindow_destroy . . . . .	L Near	 00000000 FLAT	External C
sfRenderWindow_display . . . . .	L Near	 00000000 FLAT	External C
sfRenderWindow_drawRectangleShape 	L Near	 00000000 FLAT	External C
sfRenderWindow_drawSprite  . . .	L Near	 00000000 FLAT	External C
sfRenderWindow_drawText  . . . .	L Near	 00000000 FLAT	External C
sfRenderWindow_isOpen  . . . . .	L Near	 00000000 FLAT	External C
sfRenderWindow_pollEvent . . . .	L Near	 00000000 FLAT	External C
sfResize . . . . . . . . . . . .	Number	 00000002h   
sfSprite_create  . . . . . . . .	L Near	 00000000 FLAT	External C
sfSprite_destroy . . . . . . . .	L Near	 00000000 FLAT	External C
sfSprite_setTexture  . . . . . .	L Near	 00000000 FLAT	External C
sfText_create  . . . . . . . . .	L Near	 00000000 FLAT	External C
sfText_destroy . . . . . . . . .	L Near	 00000000 FLAT	External C
sfText_getGlobalBounds . . . . .	L Near	 00000000 FLAT	External C
sfText_getLocalBounds  . . . . .	L Near	 00000000 FLAT	External C
sfText_setCharacterSize  . . . .	L Near	 00000000 FLAT	External C
sfText_setFillColor  . . . . . .	L Near	 00000000 FLAT	External C
sfText_setFont . . . . . . . . .	L Near	 00000000 FLAT	External C
sfText_setOutlineColor . . . . .	L Near	 00000000 FLAT	External C
sfText_setOutlineThickness . . .	L Near	 00000000 FLAT	External C
sfText_setPosition . . . . . . .	L Near	 00000000 FLAT	External C
sfText_setString . . . . . . . .	L Near	 00000000 FLAT	External C
sfTexture_createFromFile . . . .	L Near	 00000000 FLAT	External C
sfTexture_destroy  . . . . . . .	L Near	 00000000 FLAT	External C
sfTitlebar . . . . . . . . . . .	Number	 00000001h   
sfTrue . . . . . . . . . . . . .	Number	 00000001h   
song1Bounds  . . . . . . . . . .	sfFloatRect  000000DF _DATA	
song1Text  . . . . . . . . . . .	DWord	 000000C3 _DATA	
song1_string . . . . . . . . . .	Byte	 00000091 _DATA	
song2Bounds  . . . . . . . . . .	sfFloatRect  000000EF _DATA	
song2Text  . . . . . . . . . . .	DWord	 000000C7 _DATA	
song2_string . . . . . . . . . .	Byte	 00000098 _DATA	
song3Bounds  . . . . . . . . . .	sfFloatRect  000000FF _DATA	
song3Text  . . . . . . . . . . .	DWord	 000000CB _DATA	
song3_string . . . . . . . . . .	Byte	 0000009F _DATA	
two  . . . . . . . . . . . . . .	DWord	 000001B3 _DATA	
window_realWidth . . . . . . . .	DWord	 0000011F _DATA	

	   0 Warnings
	   0 Errors
