Microsoft (R) Macro Assembler Version 14.42.34435.0	    12/18/24 15:21:17
main_game_page.asm					     Page 1 - 1


				.model flat, c
				include csfml.inc
			      C ; CSFML.INC - SFML Definitions for x86 Assembly
			      C ; 使用 MASM 語法
			      C 
			      C includelib csfml-audio.lib
			      C includelib csfml-graphics.lib
			      C includelib csfml-system.lib
			      C includelib csfml-window.lib
			      C 
			      C ; sfBool 定義
 = 00000000		      C sfFalse     equ 0
 = 00000001		      C sfTrue      equ 1
			      C 
			      C ; sfEventType 定義
 = 00000000		      C sfEvtClosed               equ 0
 = 00000001		      C sfEvtResized              equ 1
 = 00000002		      C sfEvtLostFocus            equ 2
 = 00000003		      C sfEvtGainedFocus          equ 3
 = 00000004		      C sfEvtTextEntered          equ 4
 = 00000005		      C sfEvtKeyPressed           equ 5
 = 00000006		      C sfEvtKeyReleased          equ 6
 = 00000007		      C sfEvtMouseWheelMoved      equ 7
 = 00000008		      C sfEvtMouseWheelScrolled   equ 8
 = 00000009		      C sfEvtMouseButtonPressed   equ 9
 = 0000000A		      C sfEvtMouseButtonReleased  equ 10
 = 0000000B		      C sfEvtMouseMoved           equ 11
 = 0000000C		      C sfEvtMouseEntered         equ 12
 = 0000000D		      C sfEvtMouseLeft            equ 13
			      C 
			      C ; sfMouseButton 定義
 = 00000000		      C sfMouseLeft   equ 0
 = 00000001		      C sfMouseRight  equ 1
 = 00000002		      C sfMouseMiddle equ 2
			      C 
			      C ; sfKey 定義
 = 0000003A		      C sfKeyEnter    equ 58
 = 00000000		      C sfKeyA        equ 0
 = 00000012		      C sfKeyS        equ 18
 = 00000003		      C sfKeyD        equ 3
 = 00000024		      C sfKeyEscape   equ 36
			      C 
			      C ; 視窗風格定義
 = 00000000		      C sfNone       equ 0
 = 00000001		      C sfTitlebar   equ 1
 = 00000002		      C sfResize     equ 2
 = 00000004		      C sfClose      equ 4
 = 00000008		      C sfFullscreen equ 8
			      C 
			      C ; 結構體定義
 00000008		      C sfVector2f STRUCT
 00000000  00000000	      C     x REAL4 ?
 00000004  00000000	      C     y REAL4 ?
			      C sfVector2f ENDS
			      C 
 00000008		      C sfVector2i STRUCT
 00000000  00000000	      C     x SDWORD ?
 00000004  00000000	      C     y SDWORD ?
			      C sfVector2i ENDS
			      C 
 0000000C		      C sfVideoMode STRUCT
 00000000  00000000	      C     _width  DWORD ?
 00000004  00000000	      C     height DWORD ?
 00000008  00000000	      C     bpp    DWORD ?
			      C sfVideoMode ENDS
			      C 
 00000004		      C sfColor STRUCT
 00000000  00		      C     r BYTE ?
 00000001  00		      C     g BYTE ?
 00000002  00		      C     b BYTE ?
 00000003  00		      C     a BYTE ?
			      C sfColor ENDS
			      C 
 00000010		      C sfFloatRect STRUCT
 00000000  00000000	      C     left   REAL4 ?
 00000004  00000000	      C     top    REAL4 ?
 00000008  00000000	      C     _width  REAL4 ?
 0000000C  00000000	      C     height REAL4 ?
			      C sfFloatRect ENDS
			      C 
 0000000C		      C mouseButton STRUCT
 00000000  00000000	      C     button DWORD ?
 00000004  00000000	      C     x DWORD ?
 00000008  00000000	      C     y DWORD ?
			      C mouseButton ENDS
			      C 
 00000014		      C key STRUCT
 00000000  00000000	      C     code DWORD ?
 00000004  00000000	      C     alt DWORD ?
 00000008  00000000	      C     control DWORD ?
 0000000C  00000000	      C     shift DWORD ?
 00000010  00000000	      C     system DWORD ?
			      C key ENDS
			      C 
 00000030		      C sfEvent STRUCT
 00000000  00000000	      C     _type DWORD ?                
 00000004  00000000	      C     _size DWORD ?                
 00000008  00000000	      C     mouse mouseButton <>       
	   00000000
	   00000000
 00000014  00000000	      C     _key key <>                 
	   00000000
	   00000000
	   00000000
	   00000000
 00000028  00000000	      C     mouseMove sfVector2i <>     
	   00000000
			      C sfEvent ENDS
			      C 
			      C ; 函數原型 - 視窗相關
			      C EXTERN sfRenderWindow_create:PROC
			      C EXTERN sfRenderWindow_destroy:PROC
			      C EXTERN sfRenderWindow_close:PROC
			      C EXTERN sfRenderWindow_isOpen:PROC
			      C EXTERN sfRenderWindow_clear:PROC
			      C EXTERN sfRenderWindow_display:PROC
			      C EXTERN sfRenderWindow_pollEvent:PROC
			      C EXTERN sfRenderWindow_drawSprite:PROC
			      C EXTERN sfRenderWindow_drawText:PROC
			      C 
			      C ; 函數原型 - 紋理相關
			      C EXTERN sfTexture_createFromFile:PROC
			      C EXTERN sfTexture_destroy:PROC
			      C 
			      C ; 函數原型 - 精靈相關
			      C EXTERN sfSprite_create:PROC
			      C EXTERN sfSprite_destroy:PROC
			      C EXTERN sfSprite_setTexture:PROC
			      C EXTERN sfSprite_setPosition:PROC
			      C EXTERN sfSprite_setOrigin:PROC
			      C EXTERN sfSprite_move:PROC
			      C 
			      C ; 函數原型 - 音樂相關
			      C EXTERN sfMusic_createFromFile:PROC
			      C EXTERN sfMusic_destroy:PROC
			      C EXTERN sfMusic_play:PROC
			      C EXTERN sfMusic_setLoop:PROC
			      C EXTERN sfMusic_stop: PROC
			      C EXTERN sfMusic_getStatus: PROC
			      C 
			      C ; 函數原型 - 文字相關
			      C EXTERN sfFont_createFromFile:PROC
			      C EXTERN sfFont_destroy:PROC
			      C EXTERN sfText_create:PROC
			      C EXTERN sfText_destroy:PROC
			      C EXTERN sfText_setFont:PROC
			      C EXTERN sfText_setString:PROC
			      C EXTERN sfText_setCharacterSize:PROC
			      C EXTERN sfText_setFillColor:PROC
			      C EXTERN sfText_setOutlineColor:PROC
			      C EXTERN sfText_setOutlineThickness:PROC
			      C EXTERN sfText_getLocalBounds:PROC
			      C EXTERN sfText_getGlobalBounds:PROC
			      C EXTERN sfText_setPosition:PROC
			      C 
			      C ; 函數原型 - 顏色相關
			      C EXTERN sfColor_fromRGB:PROC
			      C EXTERN sfColor_fromRGBA:PROC
			      C 
			      C ; 函數原型 - 矩形相關
			      C EXTERN sfRectangleShape_create: PROC
			      C EXTERN sfRectangleShape_setPosition: PROC
			      C EXTERN sfRectangleShape_setSize: PROC
			      C EXTERN sfRectangleShape_setFillColor: PROC
			      C EXTERN sfRectangleShape_setOutlineThickness: PROC
			      C EXTERN sfRenderWindow_drawRectangleShape: PROC
			      C EXTERN sfRectangleShape_destroy: PROC
			      C EXTERN sfRectangleShape_setOutlineColor: PROC
			      C 
			      C EXTERN sfSleep: PROC
			      C 
			      C EXTERN sfClock_create:PROC
			      C EXTERN sfClock_getElapsedTime:PROC
			      C EXTERN sfClock_restart:PROC
			      C EXTERN sfClock_destroy:PROC
			      C 

				extern currentPage: DWORD

 00000000			.data
				    ; 檔案路徑
 00000000 61 73 73 65 74	    bg_path db "assets/main/bg_genre_2.png", 0
	   73 2F 6D 61 69
	   6E 2F 62 67 5F
	   67 65 6E 72 65
	   5F 32 2E 70 6E
	   67 00
 0000001B 61 73 73 65 74	    red_note_path db "assets/main/red_note.png", 0
	   73 2F 6D 61 69
	   6E 2F 72 65 64
	   5F 6E 6F 74 65
	   2E 70 6E 67 00
 00000034 61 73 73 65 74	    blue_note_path db "assets/main/blue_note.png", 0
	   73 2F 6D 61 69
	   6E 2F 62 6C 75
	   65 5F 6E 6F 74
	   65 2E 70 6E 67
	   00

				    ; CSFML 物件
 0000004E 00000000		    bgTexture dd 0
 00000052 00000000		    bgSprite dd 0
 00000056 00000000		    redNoteTexture dd 0
 0000005A 00000000		    blueNoteTexture dd 0
 0000005E  00000100 [		    noteSprites dd 256 DUP(0) ; 最多支援 256 個音符精靈
	    00000000
	   ]
 0000045E 00000000		    noteCount dd 0            ; 當前音符數量

				    ; 計時器
 00000462 00000000		    clock dd 0
 00000466 00000000		    note_timer REAL4 0.0       ; 音符生成計時器
 0000046A 41200000		    note_interval REAL4 10.0    ; 每 1 秒生成一個音符

				    ; 視窗設定
 0000046E 00000500		    window_videoMode sfVideoMode <1280, 720, 32>
	   000002D0
	   00000020
 0000047A 54 61 69 6B 6F	    windowTitle db "Taiko Simulator", 0
	   20 53 69 6D 75
	   6C 61 74 6F 72
	   00
 0000048A BF000000		    scrollSpeed REAL4 -0.5      ; 音符滾動速度 (向左移動)

				    ; 顏色常數
 0000048E FF FF FF FF		    whiteColor sfColor <255, 255, 255, 255> ; 白色
 00000492 00 00 00 FF		    blackColor sfColor <0, 0, 0, 255>       ; 黑色

 00000496 44960000		    notePosition sfVector2f <1200.0, 200.0>  ; 音符的 X 和 Y 座標
	   43480000
 0000049E BDCCCCCD		    movePosition sfVector2f <-0.1, 0.0>
	   00000000

 00000000			.code

				; 載入背景
 00000000			@load_bg PROC
				    ; 創建背景紋理
 00000000  6A 00		    push 0
 00000002  68 00000000 R	    push offset bg_path
 00000007  E8 00000000 E	    call sfTexture_createFromFile
 0000000C  83 C4 08		    add esp, 8
 0000000F  85 C0		    test eax, eax
 00000011  74 2B		    jz @fail_load
 00000013  A3 0000004E R	    mov bgTexture, eax

				    ; 創建背景精靈
 00000018  E8 00000000 E	    call sfSprite_create
 0000001D  85 C0		    test eax, eax
 0000001F  74 1D		    jz @fail_load
 00000021  A3 00000052 R	    mov DWORD PTR [bgSprite], eax

				    ; 設定紋理
 00000026  6A 01		    push 1
 00000028  A1 0000004E R	    mov eax, DWORD PTR [bgTexture]
 0000002D  50			    push eax
 0000002E  8B 0D 00000052 R	    mov ecx, DWORD PTR [bgSprite]
 00000034  51			    push ecx
 00000035  E8 00000000 E	    call sfSprite_setTexture
 0000003A  83 C4 0C		    add esp, 12
 0000003D  C3			    ret

 0000003E			@fail_load:
 0000003E  B8 00000000		    mov eax, 0
 00000043  C3			    ret
 00000044			@load_bg ENDP

				; 載入音符
 00000044			@load_notes PROC
				    ; 創建紅色音符紋理
 00000044  6A 00		    push 0
 00000046  68 0000001B R	    push offset red_note_path
 0000004B  E8 00000000 E	    call sfTexture_createFromFile
 00000050  83 C4 08		    add esp, 8
 00000053  85 C0		    test eax, eax
 00000055  74 06		    jz @fail_load
 00000057  A3 00000056 R	    mov redNoteTexture, eax
 0000005C  C3			    ret

 0000005D			@fail_load:
 0000005D  B8 00000000		    mov eax, 0
 00000062  C3			    ret
 00000063			@load_notes ENDP

				; 生成新的音符
 00000063			@generate_note PROC
				    ; 如果音符超過最大數量，則跳過
 00000063  A1 0000045E R	    mov eax, noteCount
 00000068  3D 00000100		    cmp eax, 256   ; 生成最多 256 個音符
 0000006D  73 50		    jae @end

				    ; 創建新的音符精靈
 0000006F  E8 00000000 E	    call sfSprite_create
 00000074  85 C0		    test eax, eax
 00000076  74 47		    jz @end

				    ; 將新的音符精靈儲存到陣列中
 00000078  8B 35 0000045E R	    mov esi, noteCount           ; 使用 noteCount 來確保索引有效
 0000007E  89 04 B5		    mov DWORD PTR [noteSprites + esi*4], eax
	   0000005E R

				    ; 設定紅色音符紋理
 00000085  6A 01		    push 1
 00000087  A1 00000056 R	    mov eax, redNoteTexture
 0000008C  50			    push eax
 0000008D  8B 0C B5		    mov ecx, DWORD PTR [noteSprites + esi*4]
	   0000005E R
 00000094  51			    push ecx
 00000095  E8 00000000 E	    call sfSprite_setTexture
 0000009A  83 C4 0C		    add esp, 12

				    ; 設定音符初始位置
 0000009D  FF 35 0000049A R	    push dword ptr [notePosition+4] ; Y 座標
 000000A3  FF 35 00000496 R	    push dword ptr [notePosition]   ; X 座標
 000000A9  8B 04 B5		    mov eax, DWORD PTR [noteSprites + esi*4]
	   0000005E R
 000000B0  50			    push eax
 000000B1  E8 00000000 E	    call sfSprite_setPosition
 000000B6  83 C4 0C		    add esp, 12

				    ; 更新音符數量
 000000B9  FF 05 0000045E R	    inc noteCount
 000000BF			@end:
 000000BF  C3			    ret
 000000C0			@generate_note ENDP

				; 更新音符位置
 000000C0			@update_notes PROC
 000000C0  33 F6		    xor esi, esi

 000000C2			@loop_notes:
 000000C2  3B 35 0000045E R	    cmp esi, noteCount
 000000C8  7D 23		    jge @end

				    ; 檢查音符是否有效
 000000CA  8B 04 B5		    mov eax, DWORD PTR [noteSprites + esi*4]
	   0000005E R
 000000D1  85 C0		    test eax, eax
 000000D3  74 15		    jz @next_note

				    ; 移動音符
 000000D5  FF 35 000004A2 R	    push dword ptr [movePosition+4] ; Y 方向不變
 000000DB  FF 35 0000048A R	    push scrollSpeed                ; X 方向移動
 000000E1  50			    push eax
 000000E2  E8 00000000 E	    call sfSprite_move
 000000E7  83 C4 0C		    add esp, 12

 000000EA			@next_note:
 000000EA  46			    inc esi
 000000EB  EB D5		    jmp @loop_notes
 000000ED			@end:
 000000ED  C3			    ret
 000000EE			@update_notes ENDP

				; 清理音符
 000000EE			@cleanup_notes PROC
 000000EE  33 F6		    xor esi, esi

 000000F0			@loop_cleanup:
 000000F0  3B 35 0000045E R	    cmp esi, noteCount
 000000F6  7D 17		    jge @end

				    ; 檢查音符是否有效
 000000F8  8B 04 B5		    mov eax, DWORD PTR [noteSprites + esi*4]
	   0000005E R
 000000FF  85 C0		    test eax, eax
 00000101  74 09		    jz @next_cleanup

				    ; 銷毀音符精靈
 00000103  50			    push eax
 00000104  E8 00000000 E	    call sfSprite_destroy
 00000109  83 C4 04		    add esp, 4

 0000010C			@next_cleanup:
 0000010C  46			    inc esi
 0000010D  EB E1		    jmp @loop_cleanup
 0000010F			@end:
 0000010F  C3			    ret
 00000110			@cleanup_notes ENDP

 00000110			main_game_page PROC window:DWORD
				    ; 載入背景
 00000113  E8 FFFFFEE8		    call @load_bg
 00000118  85 C0		    test eax, eax
 0000011A  0F 84 000000E3	    jz @exit_program

				    ; 載入音符
 00000120  E8 FFFFFF1F		    call @load_notes
 00000125  85 C0		    test eax, eax
 00000127  0F 84 000000D6	    jz @exit_program

				    ; 初始化計時器
 0000012D  E8 00000000 E	    call sfClock_create
 00000132  85 C0		    test eax, eax
 00000134  0F 84 000000C9	    jz @exit_program
 0000013A  A3 00000462 R	    mov clock, eax

				    ; 設置音符生成間隔開始時間
 0000013F  F3/ 0F 11 05		    movss note_timer, xmm0
	   00000466 R

 00000147			@main_loop:
				    ; 檢查視窗是否開啟
 00000147  8B 45 08		    mov eax, window
 0000014A  50			    push eax
 0000014B  E8 00000000 E	    call sfRenderWindow_isOpen
 00000150  83 C4 04		    add esp, 4
 00000153  85 C0		    test eax, eax
 00000155  0F 84 000000A8	    je @exit_program

				    ; 更新計時器
 0000015B  A1 00000462 R	    mov eax, clock
 00000160  50			    push eax
 00000161  E8 00000000 E	    call sfClock_getElapsedTime
 00000166  83 C4 04		    add esp, 4
 00000169  85 C0		    test eax, eax
 0000016B  0F 84 00000092	    jz @exit_program               ; 如果時間返回無效，退出程式

				    ; 提取微秒並轉換為秒數
 00000171  BB 000F4240		    mov ebx, 1000000  ; 1,000,000 用於將微秒轉換為秒
 00000176  33 D2		    xor edx, edx      ; 清除 edx，準備進行除法操作
 00000178  F7 F3		    div ebx           ; eax = microseconds / 1,000,000 (秒數)
 0000017A  F3/ 0F 11 05		    movss note_timer, xmm0  ; 將秒數存儲到 note_timer
	   00000466 R

				    ; 判斷是否生成新的音符
 00000182  F3/ 0F 10 05		    movss xmm0, note_timer
	   00000466 R
 0000018A  F3/ 0F 10 0D		    movss xmm1, note_interval
	   0000046A R
 00000192  0F 2F C1		    comiss xmm0, xmm1
 00000195  72 0A		    jb @skip_generate_note

				    ; 生成音符並重置計時器
 00000197  E8 FFFFFEC7		    call @generate_note
 0000019C  E8 00000000 E	    call sfClock_restart           ; 重置時鐘

 000001A1			@skip_generate_note:
				    ; 更新音符
 000001A1  E8 FFFFFF1A		    call @update_notes

				    ; 清除視窗
 000001A6  FF 35 00000492 R	    push blackColor
 000001AC  FF 75 08		    push window
 000001AF  E8 00000000 E	    call sfRenderWindow_clear
 000001B4  83 C4 08		    add esp, 8

				    ; 繪製背景
 000001B7  6A 00		    push 0
 000001B9  A1 00000052 R	    mov eax, bgSprite
 000001BE  50			    push eax
 000001BF  8B 4D 08		    mov ecx, window
 000001C2  51			    push ecx
 000001C3  E8 00000000 E	    call sfRenderWindow_drawSprite
 000001C8  83 C4 0C		    add esp, 12

				    ; 繪製音符
 000001CB  33 F6		    xor esi, esi
 000001CD			@draw_notes_loop:
 000001CD  3B 35 0000045E R	    cmp esi, noteCount
 000001D3  7D 1D		    jge @end_draw_notes

 000001D5  8B 04 B5		    mov eax, DWORD PTR [noteSprites + esi*4]
	   0000005E R
 000001DC  85 C0		    test eax, eax
 000001DE  74 0F		    jz @next_draw

 000001E0  6A 00		    push 0
 000001E2  50			    push eax
 000001E3  8B 4D 08		    mov ecx, window
 000001E6  51			    push ecx
 000001E7  E8 00000000 E	    call sfRenderWindow_drawSprite
 000001EC  83 C4 0C		    add esp, 12

 000001EF			@next_draw:
 000001EF  46			    inc esi
 000001F0  EB DB		    jmp @draw_notes_loop
 000001F2			@end_draw_notes:

				    ; 顯示視窗
 000001F2  8B 45 08		    mov eax, window
 000001F5  50			    push eax
 000001F6  E8 00000000 E	    call sfRenderWindow_display
 000001FB  83 C4 04		    add esp, 4

 000001FE  E9 FFFFFF44		    jmp @main_loop

 00000203			@exit_program:
 00000203  E8 FFFFFEE6		    call @cleanup_notes

 00000208  FF 35 00000052 R	    push bgSprite
 0000020E  E8 00000000 E	    call sfSprite_destroy
 00000213  83 C4 04		    add esp, 4

 00000216  FF 35 0000004E R	    push bgTexture
 0000021C  E8 00000000 E	    call sfTexture_destroy
 00000221  83 C4 04		    add esp, 4

 00000224  FF 35 00000056 R	    push redNoteTexture
 0000022A  E8 00000000 E	    call sfTexture_destroy
 0000022F  83 C4 04		    add esp, 4

 00000232  FF 35 00000462 R	    push clock
 00000238  E8 00000000 E	    call sfClock_destroy
 0000023D  83 C4 04		    add esp, 4

				    ret
 00000242			main_game_page ENDP

				END main_game_page
Microsoft (R) Macro Assembler Version 14.42.34435.0	    12/18/24 15:21:17
main_game_page.asm					     Symbols 2 - 1




Structures and Unions:

                N a m e                  Size
                                         Offset      Type

key  . . . . . . . . . . . . . .	 00000014
  code . . . . . . . . . . . . .	 00000000	 DWord
  alt  . . . . . . . . . . . . .	 00000004	 DWord
  control  . . . . . . . . . . .	 00000008	 DWord
  shift  . . . . . . . . . . . .	 0000000C	 DWord
  system . . . . . . . . . . . .	 00000010	 DWord
mouseButton  . . . . . . . . . .	 0000000C
  button . . . . . . . . . . . .	 00000000	 DWord
  x  . . . . . . . . . . . . . .	 00000004	 DWord
  y  . . . . . . . . . . . . . .	 00000008	 DWord
sfColor  . . . . . . . . . . . .	 00000004
  r  . . . . . . . . . . . . . .	 00000000	 Byte
  g  . . . . . . . . . . . . . .	 00000001	 Byte
  b  . . . . . . . . . . . . . .	 00000002	 Byte
  a  . . . . . . . . . . . . . .	 00000003	 Byte
sfEvent  . . . . . . . . . . . .	 00000030
  _type  . . . . . . . . . . . .	 00000000	 DWord
  _size  . . . . . . . . . . . .	 00000004	 DWord
  mouse  . . . . . . . . . . . .	 00000008	 
  _key . . . . . . . . . . . . .	 00000014	 
  mouseMove  . . . . . . . . . .	 00000028	 QWord
sfFloatRect  . . . . . . . . . .	 00000010
  left . . . . . . . . . . . . .	 00000000	 DWord
  top  . . . . . . . . . . . . .	 00000004	 DWord
  _width . . . . . . . . . . . .	 00000008	 DWord
  height . . . . . . . . . . . .	 0000000C	 DWord
sfVector2f . . . . . . . . . . .	 00000008
  x  . . . . . . . . . . . . . .	 00000000	 DWord
  y  . . . . . . . . . . . . . .	 00000004	 DWord
sfVector2i . . . . . . . . . . .	 00000008
  x  . . . . . . . . . . . . . .	 00000000	 DWord
  y  . . . . . . . . . . . . . .	 00000004	 DWord
sfVideoMode  . . . . . . . . . .	 0000000C
  _width . . . . . . . . . . . .	 00000000	 DWord
  height . . . . . . . . . . . .	 00000004	 DWord
  bpp  . . . . . . . . . . . . .	 00000008	 DWord


Segments and Groups:

                N a m e                 Size     Length   Align   Combine Class

FLAT . . . . . . . . . . . . . .	GROUP
_DATA  . . . . . . . . . . . . .	32 Bit	 000004A6 Para	  Public  'DATA'	
_TEXT  . . . . . . . . . . . . .	32 Bit	 00000242 Para	  Public  'CODE'	


Procedures, parameters, and locals:

                N a m e                 Type     Value    Attr

@cleanup_notes . . . . . . . . .	P Near	 000000EE _TEXT	Length= 00000022 Public C
  @loop_cleanup  . . . . . . . .	L Near	 000000F0 _TEXT	
  @next_cleanup  . . . . . . . .	L Near	 0000010C _TEXT	
  @end . . . . . . . . . . . . .	L Near	 0000010F _TEXT	
@generate_note . . . . . . . . .	P Near	 00000063 _TEXT	Length= 0000005D Public C
  @end . . . . . . . . . . . . .	L Near	 000000BF _TEXT	
@load_bg . . . . . . . . . . . .	P Near	 00000000 _TEXT	Length= 00000044 Public C
  @fail_load . . . . . . . . . .	L Near	 0000003E _TEXT	
@load_notes  . . . . . . . . . .	P Near	 00000044 _TEXT	Length= 0000001F Public C
  @fail_load . . . . . . . . . .	L Near	 0000005D _TEXT	
@update_notes  . . . . . . . . .	P Near	 000000C0 _TEXT	Length= 0000002E Public C
  @loop_notes  . . . . . . . . .	L Near	 000000C2 _TEXT	
  @next_note . . . . . . . . . .	L Near	 000000EA _TEXT	
  @end . . . . . . . . . . . . .	L Near	 000000ED _TEXT	
main_game_page . . . . . . . . .	P Near	 00000110 _TEXT	Length= 00000132 Public C
  window . . . . . . . . . . . .	DWord	 bp + 00000008
  @main_loop . . . . . . . . . .	L Near	 00000147 _TEXT	
  @skip_generate_note  . . . . .	L Near	 000001A1 _TEXT	
  @draw_notes_loop . . . . . . .	L Near	 000001CD _TEXT	
  @next_draw . . . . . . . . . .	L Near	 000001EF _TEXT	
  @end_draw_notes  . . . . . . .	L Near	 000001F2 _TEXT	
  @exit_program  . . . . . . . .	L Near	 00000203 _TEXT	


Symbols:

                N a m e                 Type     Value    Attr

@CodeSize  . . . . . . . . . . .	Number	 00000000h   
@DataSize  . . . . . . . . . . .	Number	 00000000h   
@Interface . . . . . . . . . . .	Number	 00000001h   
@Model . . . . . . . . . . . . .	Number	 00000007h   
@code  . . . . . . . . . . . . .	Text   	 _TEXT
@data  . . . . . . . . . . . . .	Text   	 FLAT
@fardata?  . . . . . . . . . . .	Text   	 FLAT
@fardata . . . . . . . . . . . .	Text   	 FLAT
@stack . . . . . . . . . . . . .	Text   	 FLAT
bgSprite . . . . . . . . . . . .	DWord	 00000052 _DATA	
bgTexture  . . . . . . . . . . .	DWord	 0000004E _DATA	
bg_path  . . . . . . . . . . . .	Byte	 00000000 _DATA	
blackColor . . . . . . . . . . .	sfColor	 00000492 _DATA	
blueNoteTexture  . . . . . . . .	DWord	 0000005A _DATA	
blue_note_path . . . . . . . . .	Byte	 00000034 _DATA	
clock  . . . . . . . . . . . . .	DWord	 00000462 _DATA	
currentPage  . . . . . . . . . .	DWord	 00000000 FLAT	External C
movePosition . . . . . . . . . .	sfVector2f  0000049E _DATA	
noteCount  . . . . . . . . . . .	DWord	 0000045E _DATA	
notePosition . . . . . . . . . .	sfVector2f  00000496 _DATA	
noteSprites  . . . . . . . . . .	DWord	 0000005E _DATA	
note_interval  . . . . . . . . .	DWord	 0000046A _DATA	
note_timer . . . . . . . . . . .	DWord	 00000466 _DATA	
redNoteTexture . . . . . . . . .	DWord	 00000056 _DATA	
red_note_path  . . . . . . . . .	Byte	 0000001B _DATA	
scrollSpeed  . . . . . . . . . .	DWord	 0000048A _DATA	
sfClock_create . . . . . . . . .	L Near	 00000000 FLAT	External C
sfClock_destroy  . . . . . . . .	L Near	 00000000 FLAT	External C
sfClock_getElapsedTime . . . . .	L Near	 00000000 FLAT	External C
sfClock_restart  . . . . . . . .	L Near	 00000000 FLAT	External C
sfClose  . . . . . . . . . . . .	Number	 00000004h   
sfColor_fromRGBA . . . . . . . .	L Near	 00000000 FLAT	External C
sfColor_fromRGB  . . . . . . . .	L Near	 00000000 FLAT	External C
sfEvtClosed  . . . . . . . . . .	Number	 00000000h   
sfEvtGainedFocus . . . . . . . .	Number	 00000003h   
sfEvtKeyPressed  . . . . . . . .	Number	 00000005h   
sfEvtKeyReleased . . . . . . . .	Number	 00000006h   
sfEvtLostFocus . . . . . . . . .	Number	 00000002h   
sfEvtMouseButtonPressed  . . . .	Number	 00000009h   
sfEvtMouseButtonReleased . . . .	Number	 0000000Ah   
sfEvtMouseEntered  . . . . . . .	Number	 0000000Ch   
sfEvtMouseLeft . . . . . . . . .	Number	 0000000Dh   
sfEvtMouseMoved  . . . . . . . .	Number	 0000000Bh   
sfEvtMouseWheelMoved . . . . . .	Number	 00000007h   
sfEvtMouseWheelScrolled  . . . .	Number	 00000008h   
sfEvtResized . . . . . . . . . .	Number	 00000001h   
sfEvtTextEntered . . . . . . . .	Number	 00000004h   
sfFalse  . . . . . . . . . . . .	Number	 00000000h   
sfFont_createFromFile  . . . . .	L Near	 00000000 FLAT	External C
sfFont_destroy . . . . . . . . .	L Near	 00000000 FLAT	External C
sfFullscreen . . . . . . . . . .	Number	 00000008h   
sfKeyA . . . . . . . . . . . . .	Number	 00000000h   
sfKeyD . . . . . . . . . . . . .	Number	 00000003h   
sfKeyEnter . . . . . . . . . . .	Number	 0000003Ah   
sfKeyEscape  . . . . . . . . . .	Number	 00000024h   
sfKeyS . . . . . . . . . . . . .	Number	 00000012h   
sfMouseLeft  . . . . . . . . . .	Number	 00000000h   
sfMouseMiddle  . . . . . . . . .	Number	 00000002h   
sfMouseRight . . . . . . . . . .	Number	 00000001h   
sfMusic_createFromFile . . . . .	L Near	 00000000 FLAT	External C
sfMusic_destroy  . . . . . . . .	L Near	 00000000 FLAT	External C
sfMusic_getStatus  . . . . . . .	L Near	 00000000 FLAT	External C
sfMusic_play . . . . . . . . . .	L Near	 00000000 FLAT	External C
sfMusic_setLoop  . . . . . . . .	L Near	 00000000 FLAT	External C
sfMusic_stop . . . . . . . . . .	L Near	 00000000 FLAT	External C
sfNone . . . . . . . . . . . . .	Number	 00000000h   
sfRectangleShape_create  . . . .	L Near	 00000000 FLAT	External C
sfRectangleShape_destroy . . . .	L Near	 00000000 FLAT	External C
sfRectangleShape_setFillColor  .	L Near	 00000000 FLAT	External C
sfRectangleShape_setOutlineColor .	L Near	 00000000 FLAT	External C
sfRectangleShape_setOutlineThickness .	L Near	 00000000 FLAT	External C
sfRectangleShape_setPosition . .	L Near	 00000000 FLAT	External C
sfRectangleShape_setSize . . . .	L Near	 00000000 FLAT	External C
sfRenderWindow_clear . . . . . .	L Near	 00000000 FLAT	External C
sfRenderWindow_close . . . . . .	L Near	 00000000 FLAT	External C
sfRenderWindow_create  . . . . .	L Near	 00000000 FLAT	External C
sfRenderWindow_destroy . . . . .	L Near	 00000000 FLAT	External C
sfRenderWindow_display . . . . .	L Near	 00000000 FLAT	External C
sfRenderWindow_drawRectangleShape 	L Near	 00000000 FLAT	External C
sfRenderWindow_drawSprite  . . .	L Near	 00000000 FLAT	External C
sfRenderWindow_drawText  . . . .	L Near	 00000000 FLAT	External C
sfRenderWindow_isOpen  . . . . .	L Near	 00000000 FLAT	External C
sfRenderWindow_pollEvent . . . .	L Near	 00000000 FLAT	External C
sfResize . . . . . . . . . . . .	Number	 00000002h   
sfSleep  . . . . . . . . . . . .	L Near	 00000000 FLAT	External C
sfSprite_create  . . . . . . . .	L Near	 00000000 FLAT	External C
sfSprite_destroy . . . . . . . .	L Near	 00000000 FLAT	External C
sfSprite_move  . . . . . . . . .	L Near	 00000000 FLAT	External C
sfSprite_setOrigin . . . . . . .	L Near	 00000000 FLAT	External C
sfSprite_setPosition . . . . . .	L Near	 00000000 FLAT	External C
sfSprite_setTexture  . . . . . .	L Near	 00000000 FLAT	External C
sfText_create  . . . . . . . . .	L Near	 00000000 FLAT	External C
sfText_destroy . . . . . . . . .	L Near	 00000000 FLAT	External C
sfText_getGlobalBounds . . . . .	L Near	 00000000 FLAT	External C
sfText_getLocalBounds  . . . . .	L Near	 00000000 FLAT	External C
sfText_setCharacterSize  . . . .	L Near	 00000000 FLAT	External C
sfText_setFillColor  . . . . . .	L Near	 00000000 FLAT	External C
sfText_setFont . . . . . . . . .	L Near	 00000000 FLAT	External C
sfText_setOutlineColor . . . . .	L Near	 00000000 FLAT	External C
sfText_setOutlineThickness . . .	L Near	 00000000 FLAT	External C
sfText_setPosition . . . . . . .	L Near	 00000000 FLAT	External C
sfText_setString . . . . . . . .	L Near	 00000000 FLAT	External C
sfTexture_createFromFile . . . .	L Near	 00000000 FLAT	External C
sfTexture_destroy  . . . . . . .	L Near	 00000000 FLAT	External C
sfTitlebar . . . . . . . . . . .	Number	 00000001h   
sfTrue . . . . . . . . . . . . .	Number	 00000001h   
whiteColor . . . . . . . . . . .	sfColor	 0000048E _DATA	
windowTitle  . . . . . . . . . .	Byte	 0000047A _DATA	
window_videoMode . . . . . . . .	sfVideoMode  0000046E _DATA	

	   0 Warnings
	   0 Errors
