Microsoft (R) Macro Assembler Version 14.42.34435.0	    12/19/24 23:39:20
main_game_page.asm					     Page 1 - 1


				.model flat, c
				include csfml.inc
			      C ; CSFML.INC - SFML Definitions for x86 Assembly
			      C ; 使用 MASM 語法
			      C 
			      C includelib csfml-audio.lib
			      C includelib csfml-graphics.lib
			      C includelib csfml-system.lib
			      C includelib csfml-window.lib
			      C 
			      C ; sfBool 定義
 = 00000000		      C sfFalse     equ 0
 = 00000001		      C sfTrue      equ 1
			      C 
			      C ; sfEventType 定義
 = 00000000		      C sfEvtClosed               equ 0
 = 00000001		      C sfEvtResized              equ 1
 = 00000002		      C sfEvtLostFocus            equ 2
 = 00000003		      C sfEvtGainedFocus          equ 3
 = 00000004		      C sfEvtTextEntered          equ 4
 = 00000005		      C sfEvtKeyPressed           equ 5
 = 00000006		      C sfEvtKeyReleased          equ 6
 = 00000007		      C sfEvtMouseWheelMoved      equ 7
 = 00000008		      C sfEvtMouseWheelScrolled   equ 8
 = 00000009		      C sfEvtMouseButtonPressed   equ 9
 = 0000000A		      C sfEvtMouseButtonReleased  equ 10
 = 0000000B		      C sfEvtMouseMoved           equ 11
 = 0000000C		      C sfEvtMouseEntered         equ 12
 = 0000000D		      C sfEvtMouseLeft            equ 13
			      C 
			      C ; sfMouseButton 定義
 = 00000000		      C sfMouseLeft   equ 0
 = 00000001		      C sfMouseRight  equ 1
 = 00000002		      C sfMouseMiddle equ 2
			      C 
			      C ; sfKey 定義
 = 0000003A		      C sfKeyEnter    equ 58
 = 00000000		      C sfKeyA        equ 0
 = 00000012		      C sfKeyS        equ 18
 = 00000003		      C sfKeyD        equ 3
 = 00000024		      C sfKeyEscape   equ 36
			      C 
			      C ; 視窗風格定義
 = 00000000		      C sfNone       equ 0
 = 00000001		      C sfTitlebar   equ 1
 = 00000002		      C sfResize     equ 2
 = 00000004		      C sfClose      equ 4
 = 00000008		      C sfFullscreen equ 8
			      C 
			      C ; 結構體定義
 00000008		      C sfVector2f STRUCT
 00000000  00000000	      C     x REAL4 ?
 00000004  00000000	      C     y REAL4 ?
			      C sfVector2f ENDS
			      C 
 00000008		      C sfVector2i STRUCT
 00000000  00000000	      C     x SDWORD ?
 00000004  00000000	      C     y SDWORD ?
			      C sfVector2i ENDS
			      C 
 0000000C		      C sfVideoMode STRUCT
 00000000  00000000	      C     _width  DWORD ?
 00000004  00000000	      C     height DWORD ?
 00000008  00000000	      C     bpp    DWORD ?
			      C sfVideoMode ENDS
			      C 
 00000004		      C sfColor STRUCT
 00000000  00		      C     r BYTE ?
 00000001  00		      C     g BYTE ?
 00000002  00		      C     b BYTE ?
 00000003  00		      C     a BYTE ?
			      C sfColor ENDS
			      C 
 00000010		      C sfFloatRect STRUCT
 00000000  00000000	      C     left   REAL4 ?
 00000004  00000000	      C     top    REAL4 ?
 00000008  00000000	      C     _width  REAL4 ?
 0000000C  00000000	      C     height REAL4 ?
			      C sfFloatRect ENDS
			      C 
 0000000C		      C mouseButton STRUCT
 00000000  00000000	      C     button DWORD ?
 00000004  00000000	      C     x DWORD ?
 00000008  00000000	      C     y DWORD ?
			      C mouseButton ENDS
			      C 
 00000014		      C key STRUCT
 00000000  00000000	      C     code DWORD ?
 00000004  00000000	      C     alt DWORD ?
 00000008  00000000	      C     control DWORD ?
 0000000C  00000000	      C     shift DWORD ?
 00000010  00000000	      C     system DWORD ?
			      C key ENDS
			      C 
 00000030		      C sfEvent STRUCT
 00000000  00000000	      C     _type DWORD ?                
 00000004  00000000	      C     _size DWORD ?                
 00000008  00000000	      C     mouse mouseButton <>       
	   00000000
	   00000000
 00000014  00000000	      C     _key key <>                 
	   00000000
	   00000000
	   00000000
	   00000000
 00000028  00000000	      C     mouseMove sfVector2i <>     
	   00000000
			      C sfEvent ENDS
			      C 
 00000004		      C sfTime STRUCT
 00000000  00000000	      C     microseconds DWORD ?    
			      C sfTime ENDS
			      C 
			      C ; 函數原型 - 視窗相關
			      C EXTERN sfRenderWindow_create:PROC
			      C EXTERN sfRenderWindow_destroy:PROC
			      C EXTERN sfRenderWindow_close:PROC
			      C EXTERN sfRenderWindow_isOpen:PROC
			      C EXTERN sfRenderWindow_clear:PROC
			      C EXTERN sfRenderWindow_display:PROC
			      C EXTERN sfRenderWindow_pollEvent:PROC
			      C EXTERN sfRenderWindow_drawSprite:PROC
			      C EXTERN sfRenderWindow_drawText:PROC
			      C 
			      C ; 函數原型 - 紋理相關
			      C EXTERN sfTexture_createFromFile:PROC
			      C EXTERN sfTexture_destroy:PROC
			      C 
			      C ; 函數原型 - 精靈相關
			      C EXTERN sfSprite_create:PROC
			      C EXTERN sfSprite_destroy:PROC
			      C EXTERN sfSprite_setTexture:PROC
			      C EXTERN sfSprite_setPosition:PROC
			      C EXTERN sfSprite_setOrigin:PROC
			      C EXTERN sfSprite_move:PROC
			      C EXTERN sfSprite_getPosition:PROC
			      C 
			      C ; 函數原型 - 音樂相關
			      C EXTERN sfMusic_createFromFile:PROC
			      C EXTERN sfMusic_destroy:PROC
			      C EXTERN sfMusic_play:PROC
			      C EXTERN sfMusic_setLoop:PROC
			      C EXTERN sfMusic_stop: PROC
			      C EXTERN sfMusic_getStatus: PROC
			      C 
			      C ; 函數原型 - 文字相關
			      C EXTERN sfFont_createFromFile:PROC
			      C EXTERN sfFont_destroy:PROC
			      C EXTERN sfText_create:PROC
			      C EXTERN sfText_destroy:PROC
			      C EXTERN sfText_setFont:PROC
			      C EXTERN sfText_setString:PROC
			      C EXTERN sfText_setCharacterSize:PROC
			      C EXTERN sfText_setFillColor:PROC
			      C EXTERN sfText_setOutlineColor:PROC
			      C EXTERN sfText_setOutlineThickness:PROC
			      C EXTERN sfText_getLocalBounds:PROC
			      C EXTERN sfText_getGlobalBounds:PROC
			      C EXTERN sfText_setPosition:PROC
			      C 
			      C ; 函數原型 - 顏色相關
			      C EXTERN sfColor_fromRGB:PROC
			      C EXTERN sfColor_fromRGBA:PROC
			      C 
			      C ; 函數原型 - 矩形相關
			      C EXTERN sfRectangleShape_create: PROC
			      C EXTERN sfRectangleShape_setPosition: PROC
			      C EXTERN sfRectangleShape_setSize: PROC
			      C EXTERN sfRectangleShape_setFillColor: PROC
			      C EXTERN sfRectangleShape_setOutlineThickness: PROC
			      C EXTERN sfRenderWindow_drawRectangleShape: PROC
			      C EXTERN sfRectangleShape_destroy: PROC
			      C EXTERN sfRectangleShape_setOutlineColor: PROC
			      C 
			      C EXTERN sfSleep: PROC
			      C 
			      C EXTERN sfClock_create:PROC
			      C EXTERN sfClock_getElapsedTime:PROC
			      C EXTERN sfClock_restart:PROC
			      C EXTERN sfClock_destroy:PROC
			      C 
				include windows.inc
			      C ; windows.inc - 包含 Windows API 函數的定義
			      C 
			      C includelib kernel32.lib
			      C 
			      C extern GetStdHandle@4:PROC
			      C extern CreateFileA@28:PROC
			      C extern WriteFile@20:PROC
			      C extern ReadFile@20:PROC
			      C extern ExitProcess@4:PROC
			      C extern CloseHandle@4:PROC
			      C extern WriteConsoleA@20:PROC
			      C extern GetLastError@0:PROC
			      C 
			      C ; 定義常量
 = 0x80000000		      C GENERIC_READ         EQU 0x80000000
 = 0x00000001		      C FILE_SHARE_READ      EQU 0x00000001
 =-0000000B		      C STD_OUTPUT_HANDLE equ -11
 = 00000003		      C OPEN_EXISTING        EQU 3
 = 0x00000080		      C FILE_ATTRIBUTE_NORMAL EQU 0x00000080
			      C 
			      C 
			      C 

				extern currentPage: DWORD
				extern create_button: PROC

 = 80000000h			GENERIC_READ equ 80000000h
 = 80h				FILE_ATTRIBUTE_NORMAL equ 80h
 =-0000000B			STD_OUTPUT_HANDLE equ -11

 = 00000000			BUTTON_STATE_NORMAL equ 0
 = 00000001			BUTTON_STATE_PRESSED equ 1

 00000008			Button STRUCT
 00000000  00000000		    shape dd ?
 00000004  00000000		    state dd ?
				Button ENDS

				; Drum 結構
 00000008			Drum STRUCT
 00000000  00000000		    sprite dd 0
 00000004  00000000		    dtype dd 0      ; 1 = 紅色鼓, 2 = 藍色鼓
				Drum ENDS

 00000000			.data
				    ; 檔案路徑
 00000000 61 73 73 65 74	    bg_path db "assets/main/game_background.jpg", 0
	   73 2F 6D 61 69
	   6E 2F 67 61 6D
	   65 5F 62 61 63
	   6B 67 72 6F 75
	   6E 64 2E 6A 70
	   67 00
 00000020 61 73 73 65 74	    red_drum_path db "assets/main/red_note.png", 0
	   73 2F 6D 61 69
	   6E 2F 72 65 64
	   5F 6E 6F 74 65
	   2E 70 6E 67 00
 00000039 61 73 73 65 74	    blue_drum_path db "assets/main/blue_note.png", 0
	   73 2F 6D 61 69
	   6E 2F 62 6C 75
	   65 5F 6E 6F 74
	   65 2E 70 6E 67
	   00
 00000053 61 73 73 65 74	    selected_music_path db "assets/never-gonna-give-you-up-official-music-video.mp3", 0
	   73 2F 6E 65 76
	   65 72 2D 67 6F
	   6E 6E 61 2D 67
	   69 76 65 2D 79
	   6F 75 2D 75 70
	   2D 6F 66 66 69
	   63 69 61 6C 2D
	   6D 75 73 69 63
	   2D 76 69 64 65
	   6F 2E 6D 70 33
	   00
 0000008B 61 73 73 65 74	    selected_beatmap_path db "assets/music/song1_beatmap.tja", 0
	   73 2F 6D 75 73
	   69 63 2F 73 6F
	   6E 67 31 5F 62
	   65 61 74 6D 61
	   70 2E 74 6A 61
	   00

				    ;常數
 = 00000064			    MAX_DRUMS equ 100 
 = 00000008			    Drum_struct_size equ 8     ; Drum 結構大小
 = 00002710			    MAX_NOTES equ 10000
 = 000003E8			    MAX_LINE_LENGTH equ 1000
 = 1280.0			    SCREEN_WIDTH equ 1280.0
 = 000002D0			    SCREEN_HEIGHT equ 720
 000000AA 3F000000		    DRUM_SPEED dd 0.5
 000000AE 42C80000		    track_height REAL4 100.0
 000000B2 44A00000		    track_width REAL4 1280.0
 000000B6 44200000		    track_x REAL4 640.0
 000000BA 43480000		    track_y REAL4 200.0
 000000BE 00000000		    spritePosX    dd 0.0
 000000C2 00000000		    spritePosY    dd 0.0

				    ; CSFML 物件
 000000C6 00000000		    bgTexture dd 0
 000000CA 00000000		    bgSprite dd 0
 000000CE 00000000		    redDrumTexture dd 0
 000000D2 00000000		    blueDrumTexture dd 0
 000000D6  00000320 [		    drumQueue dd MAX_DRUMS * Drum_struct_size DUP(0)
	    00000000
	   ]
 00000D56 00000000		    bgmusic dd 0
 00000D5A 00000000		    trackBounds sfFloatRect <>
	   00000000
	   00000000
	   00000000
 00000D6A 00000000		    track_shape Button <>
	   00000000
 00000D72 00000000		    current_drum Drum <>
	   00000000

				    ;Queue 相關
 00000D7A 00000000		    front dd 0
 00000D7E 00000000		    rear dd 0
 00000D82 00000000		    qsize dd 0

				    ; 時間相關
 00000D86 00000000		    clock dd 0
 00000D8A 00000000		    note_timer REAL4 0.0       ; 音符生成計時器
				    ;note_interval REAL4 1.0    ; 每 1 秒生成一個音符

				    ;譜面相關
 00000D8E 42E34CCD		    bpm dd 113.65 ; 預設 BPM
 00000D92 00000000		    noteSpawnInterval dd 0.0  ; 音符生成間隔 (毫秒)
 00000D96  00002710 [		    notes dd MAX_NOTES DUP(0) ; 儲存音符數據
	    00000000
	   ]
 0000A9D6 00000000		    totalNotes dd 0

				    ; 視窗設定
 0000A9DA 00000500		    window_videoMode sfVideoMode <1280, 720, 32>
	   000002D0
	   00000020
 0000A9E6 54 61 69 6B 6F	    windowTitle db "Taiko Simulator", 0
	   20 53 69 6D 75
	   6C 61 74 6F 72
	   00
				    ;scrollSpeed REAL4 -0.5      ; 音符滾動速度 (向左移動)

				    ; 顏色常數
 0000A9F6 FF FF FF FF		    whiteColor sfColor <255, 255, 255, 255> ; 白色
 0000A9FA 00 00 00 FF		    blackColor sfColor <0, 0, 0, 255>       ; 黑色

 0000A9FE 44A00000		    initialPosition sfVector2f <SCREEN_WIDTH, 200.0>  ; 音符的 X 和 Y 座標
	   43480000
				    ;movePosition sfVector2f <-0.1, 0.0>

				    ;讀檔相關
 0000AA06 00000000		    stdout_handle dd 0

 0000AA0A 73 6F 6E 67 31	    filename db "song1_beatmap.tja", 0
	   5F 62 65 61 74
	   6D 61 70 2E 74
	   6A 61 00
 0000AA1C 00000000		    hFile dd 0
 0000AA20 00000000		    bytesRead dd 0
 0000AA24  00000400 [		    readBuffer db 1024 dup(0)
	    00
	   ]

 0000AE24 52 65 61 64 20	    msgReadFail db "Read file failed.", 13, 10, 0
	   66 69 6C 65 20
	   66 61 69 6C 65
	   64 2E 0D 0A 00

 0000AE38 46 69 6C 65 20	    msgReadSuccess db "File content:", 13, 10, 0
	   63 6F 6E 74 65
	   6E 74 3A 0D 0A
	   00


 00000000			.code

				;播放音樂
 00000000			game_play_music PROC
 00000000  68 00000053 R	    push offset selected_music_path
 00000005  E8 00000000 E	    call sfMusic_createFromFile
 0000000A  83 C4 04		    add esp, 4 
 0000000D  A3 00000D56 R	    mov bgMusic, eax

 00000012  50			    push eax
 00000013  E8 00000000 E	    call sfMusic_play
 00000018  83 C4 04		    add esp, 4
 0000001B  C3			    ret
 0000001C			game_play_music ENDP

				; 讀取文件內容
 0000001C			readFile PROC
 0000001C  8B F4		    mov esi, esp

 0000001E  6A 00		    push 0
 00000020  68 0000AA20 R	    push offset bytesRead
 00000025  68 00000400		    push 1024
 0000002A  68 0000AA24 R	    push offset readBuffer
 0000002F  FF 35 0000AA1C R	    push [hFile]
 00000035  E8 00000000 E	    call ReadFile@20
 0000003A  83 C4 14		    add esp, 20

 0000003D  8B E6		    mov esp, esi
 0000003F  C3			    ret
 00000040			readFile ENDP

				; 載入背景
 00000040			@load_bg PROC
				    ; 創建背景紋理
 00000040  6A 00		    push 0
 00000042  68 00000000 R	    push offset bg_path
 00000047  E8 00000000 E	    call sfTexture_createFromFile
 0000004C  83 C4 08		    add esp, 8
 0000004F  85 C0		    test eax, eax
 00000051  74 2B		    jz @fail_load
 00000053  A3 000000C6 R	    mov bgTexture, eax

				    ; 創建背景精靈
 00000058  E8 00000000 E	    call sfSprite_create
 0000005D  85 C0		    test eax, eax
 0000005F  74 1D		    jz @fail_load
 00000061  A3 000000CA R	    mov DWORD PTR [bgSprite], eax

				    ; 設定紋理
 00000066  6A 01		    push 1
 00000068  A1 000000C6 R	    mov eax, DWORD PTR [bgTexture]
 0000006D  50			    push eax
 0000006E  8B 0D 000000CA R	    mov ecx, DWORD PTR [bgSprite]
 00000074  51			    push ecx
 00000075  E8 00000000 E	    call sfSprite_setTexture
 0000007A  83 C4 0C		    add esp, 12
 0000007D  C3			    ret

 0000007E			@fail_load:
 0000007E  B8 00000000		    mov eax, 0
 00000083  C3			    ret
 00000084			@load_bg ENDP

 00000084			create_track PROC
				     ; 初始化軌道
 00000084  51			    push ecx
 00000085  F3/ 0F 10 05		    movss xmm0, dword ptr [track_height]
	   000000AE R
 0000008D  F3/ 0F 11 04 24	    movss dword ptr [esp], xmm0

 00000092  51			    push ecx
 00000093  F3/ 0F 10 05		    movss xmm0, dword ptr [track_width]
	   000000B2 R
 0000009B  F3/ 0F 11 04 24	    movss dword ptr [esp], xmm0

 000000A0  51			    push ecx
 000000A1  F3/ 0F 10 05		    movss xmm0, dword ptr [track_y]
	   000000BA R
 000000A9  F3/ 0F 11 04 24	    movss dword ptr [esp], xmm0

 000000AE  51			    push ecx
 000000AF  F3/ 0F 10 05		    movss xmm0, dword ptr [track_x]
	   000000B6 R
 000000B7  F3/ 0F 11 04 24	    movss dword ptr [esp], xmm0

 000000BC  E8 00000000 E	    call create_button
 000000C1  83 C4 10		    add esp, 16
 000000C4  A3 00000D6A R	    mov dword ptr [track_shape], eax
 000000C9  C7 05 00000D6E R	    mov dword ptr [track_shape.state], BUTTON_STATE_NORMAL
	   00000000

				    ; 修改底部長方形顏色和邊框
 000000D3  FF 35 0000A9FA R	    push blackColor  ; 黑色
 000000D9  FF 35 00000D6A R	    push dword ptr [track_shape]
 000000DF  E8 00000000 E	    call sfRectangleShape_setFillColor
 000000E4  83 C4 08		    add esp, 8

 000000E7  FF 35 0000A9F6 R	    push whiteColor  ; 白色邊框
 000000ED  FF 35 00000D6A R	    push dword ptr [track_shape]
 000000F3  E8 00000000 E	    call sfRectangleShape_setOutlineColor
 000000F8  83 C4 08		    add esp, 8
 000000FB  C3			    ret   
 000000FC			create_track ENDP

				; 載入紅鼓紋理
 000000FC			@load_red_texture PROC
 000000FC  6A 00		    push 0
 000000FE  68 00000020 R	    push offset red_drum_path
 00000103  E8 00000000 E	    call sfTexture_createFromFile
 00000108  83 C4 08		    add esp, 8
 0000010B  85 C0		    test eax, eax
 0000010D  74 06		    jz @fail_load
 0000010F  A3 000000CE R	    mov redDrumTexture, eax

 00000114  C3			    ret
 00000115			@fail_load:
 00000115  B8 00000000		    mov eax, 0
 0000011A  C3			    ret
 0000011B			@load_red_texture ENDP

				; 載入藍鼓紋理
 0000011B			@load_blue_texture PROC
 0000011B  6A 00		    push 0
 0000011D  68 00000039 R	    push offset blue_drum_path
 00000122  E8 00000000 E	    call sfTexture_createFromFile
 00000127  83 C4 08		    add esp, 8
 0000012A  85 C0		    test eax, eax
 0000012C  74 06		    jz @fail_load
 0000012E  A3 000000D2 R	    mov blueDrumTexture, eax

 00000133  C3			    ret
 00000134			@fail_load:
 00000134  B8 00000000		    mov eax, 0
 00000139  C3			    ret
 0000013A			@load_blue_texture ENDP

 0000013A			isQueueFull PROC
 0000013A  A1 00000D82 R	    mov eax, qsize
 0000013F  83 F8 64		    cmp eax, MAX_DRUMS
 00000142  74 05		    je queue_full
 00000144  B8 00000000		    mov eax, 0

 00000149			queue_full:
 00000149  B8 00000001		    mov eax, 1

 0000014E  C3			    ret
 0000014F			isQueueFull ENDP

 0000014F			isQueueEmpty PROC
 0000014F  A1 00000D82 R	    mov eax, qsize
 00000154  83 F8 00		    cmp eax, 0
 00000157  74 05		    je queue_empty
 00000159  B8 00000000		    mov eax, 0

 0000015E			queue_empty:
 0000015E  B8 00000001		    mov eax, 1

 00000163  C3			    ret
 00000164			isQueueEmpty ENDP

 00000164			enqueue PROC
 00000164  E8 FFFFFFD1		    call isQueueFull
 00000169  83 F8 01		    cmp eax, 1
 0000016C  74 44		    je end_enqueue
				    
 0000016E  A1 00000D72 R	    mov eax, [current_drum.sprite]      ; sprite
 00000173  8B 1D 00000D76 R	    mov ebx, [current_drum.dtype]       ; dtype
 00000179  8D 3D 000000D6 R	    lea edi, drumQueue

				    ; 計算擺放位置
 0000017F  A1 00000D7E R	    mov eax, [rear]        
 00000184  BA 00000008		    mov edx, Drum_struct_size
 00000189  F7 E2		    mul edx                  
 0000018B  03 F8		    add edi, eax 

				    ; 儲存drum資料
 0000018D  89 07		    mov [edi], eax           ; sprite
 0000018F  89 5F 04		    mov [edi + 4], ebx       ; dtype

				    ; 更新rear、size
 00000192  FF 05 00000D7E R	    inc dword ptr [rear]
 00000198  A1 00000D7E R	    mov eax, [rear]
 0000019D  33 D2		    xor edx, edx
 0000019F  B9 00000064		    mov ecx, MAX_DRUMS
 000001A4  F7 F1		    div ecx
 000001A6  89 15 00000D7E R	    mov dword ptr [rear], edx
 000001AC  FF 05 00000D82 R	    inc dword ptr [qsize]

 000001B2			end_enqueue:
 000001B2  C3			    ret
 000001B3			enqueue ENDP

 000001B3			dequeue PROC
 000001B3  E8 FFFFFF97		    call isQueueEmpty
 000001B8  83 F8 01		    cmp eax, 1
 000001BB  74 42		    je end_dequeue

				    ; 計算移除位置
 000001BD  8D 3D 000000D6 R	    lea edi, drumQueue
 000001C3  A1 00000D7A R	    mov eax, [front]
 000001C8  BA 00000008		    mov edx, Drum_struct_size
 000001CD  F7 E2		    mul edx
 000001CF  03 F8		    add edi, eax

				    ; 讀取 drum
 000001D1  8B 07		    mov eax, [edi]           ;sprite
 000001D3  8B 5F 04		    mov ebx, [edi + 4]       ;dtype

				    ;釋放資源
 000001D6  50			    push eax
 000001D7  E8 00000000 E	    call sfSprite_destroy
 000001DC  83 C4 04		    add esp, 4

				    ; 更新front、size
 000001DF  FF 05 00000D7A R	    inc dword ptr [front]
 000001E5  A1 00000D7A R	    mov eax, [front]
 000001EA  33 D2		    xor edx, edx
 000001EC  B9 00000064		    mov ecx, MAX_DRUMS
 000001F1  F7 F1		    div ecx
 000001F3  89 15 00000D7A R	    mov dword ptr [front], edx
 000001F9  FF 0D 00000D82 R	    dec dword ptr [qsize]

 000001FF			end_dequeue:
 000001FF  C3			    ret
 00000200			dequeue ENDP

 00000200			spawnDrum PROC             ;call前type要先push到eax
 00000200  E8 FFFFFF35		    call isQueueFull
 00000205  83 F8 01		    cmp eax, 1
 00000208  74 3C		    je end_spawn

 0000020A  A3 00000D76 R	    mov dword ptr [current_drum.dtype], eax
 0000020F  E8 00000000 E	    call sfSprite_create
 00000214  A3 00000D72 R	    mov DWORD PTR [current_drum.sprite], eax

 00000219  83 3D 00000D76 R	    cmp dword ptr [current_drum.dtype], 1
	   01
 00000220  74 05		    je spawnRed
 00000222  E8 FFFFFEF4		    call @load_blue_texture

 00000227			spawnRed:
 00000227  E8 FFFFFED0		    call @load_red_texture

				    ;設定位置
 0000022C  FF 35 0000AA02 R	    push dword ptr [initialPosition+4] ; Y 座標
 00000232  FF 35 0000A9FE R	    push dword ptr [initialPosition]   ; X 座標
 00000238  50			    push eax
 00000239  E8 00000000 E	    call sfSprite_setPosition
 0000023E  83 C4 0C		    add esp, 12

 00000241  E8 FFFFFF1E		    call enqueue

 00000246			end_spawn:
 00000246  C3			    ret
 00000247			spawnDrum ENDP

 00000247			updateDrums PROC
 00000247  83 3D 00000D82 R	    cmp qsize, 0
	   00
 0000024E  0F 86 000000A7	    jbe end_update
				    
 00000254  8D 3D 000000D6 R	    lea edi, drumQueue
 0000025A  A1 00000D7A R	    mov eax, [front]
 0000025F  BA 00000008		    mov edx, Drum_struct_size
 00000264  F7 E2		    mul edx
 00000266  03 F8		    add edi, eax

				    ; 讀取 drum
 00000268  8B 07		    mov eax, [edi]           ;sprite
 0000026A  8B 5F 04		    mov ebx, [edi + 4]       ;dtype

 0000026D  50			    push eax
 0000026E  E8 00000000 E	    call sfSprite_getPosition
 00000273  83 C4 08		    add esp, 8

 00000276  F3/ 0F 11 05		    movss [spritePosX], xmm0
	   000000BE R
 0000027E  83 05 000000BE R	    add [spritePosX], 50
	   32
 00000285  83 3D 000000BE R	    cmp [spritePosX], 50
	   32
 0000028C  73 6D		    jae end_update

 0000028E  E8 FFFFFF20		    call dequeue

 00000293  8B 0D 00000D82 R	    mov ecx, qsize
 00000299  8B 1D 00000D7A R	    mov ebx, front
 0000029F			update_queue:
				    ; 讀取 drum
 0000029F  8B 07		    mov eax, [edi]           ;sprite

 000002A1  50			    push eax
 000002A2  E8 00000000 E	    call sfSprite_getPosition
 000002A7  83 C4 08		    add esp, 8
				    
 000002AA  F3/ 0F 11 05		    movss [spritePosX], xmm0
	   000000BE R
 000002B2  F3/ 0F 11 0D		    movss [spritePosY], xmm1
	   000000C2 R
 000002BA  F3/ 0F 10 05		    movss xmm0, [spritePosX]
	   000000BE R
 000002C2  F3/ 0F 10 0D		    movss xmm1, [DRUM_SPEED]
	   000000AA R
 000002CA  F3/ 0F 5C C1		    subss xmm0, xmm1
 000002CE  F3/ 0F 11 05		    movss [spritePosX], xmm0
	   000000BE R

 000002D6  FF 35 000000C2 R	    push dword ptr [spritePosY] ; Y 座標
 000002DC  FF 35 000000BE R	    push dword ptr [spritePosX]   ; X 座標
 000002E2  50			    push eax
 000002E3  E8 00000000 E	    call sfSprite_setPosition
 000002E8  83 C4 0C		    add esp, 12

 000002EB  43			    inc ebx
 000002EC  8B C3		    mov eax, ebx
 000002EE  33 D2		    xor edx, edx
 000002F0  B9 00000064		    mov ecx, MAX_DRUMS
 000002F5  F7 F1		    div ecx
 000002F7  8B DA		    mov ebx, edx

 000002F9  E2 A4		loop update_queue

 000002FB			end_update:
 000002FB  C3			    ret
 000002FC			updateDrums ENDP

 000002FC			main_game_page PROC window:DWORD

				    ; 載入背景
 000002FF  E8 FFFFFD3C		    call @load_bg
 00000304  85 C0		    test eax, eax
 00000306  74 7F		    jz @exit_program

				    ; 載入紅鼓紋理
 00000308  E8 FFFFFDEF		    call @load_red_texture
 0000030D  85 C0		    test eax, eax
 0000030F  74 76		    jz @exit_program

				    ; 載入藍鼓紋理
 00000311  E8 FFFFFE05		    call @load_blue_texture
 00000316  85 C0		    test eax, eax
 00000318  74 6D		    jz @exit_program

				    ;載入音樂
 0000031A  E8 FFFFFCE1		    call game_play_music
 0000031F  85 C0		    test eax, eax
 00000321  74 64		    jz @exit_program

				    ; 載入tja檔
				    ;push offset selected_beatmap_path
				    ;call parseNoteChart
				    ;test eax, eax
				    ;jz @exit_program

				    ; 初始化計時器
				    ;call sfClock_create
				    ;test eax, eax
				    ;jz @exit_program
				    ;mov clock, eax

 00000323			@main_loop:

				    ; 檢查音樂是否停止
 00000323  FF 35 00000D56 R	    push bgMusic
 00000329  E8 00000000 E	    call sfMusic_getStatus
 0000032E  83 C4 04		    add esp, 4
 00000331  83 F8 00		    cmp eax, 0
 00000334  74 45		    je to_end_page

				    ; 檢查視窗是否開啟
 00000336  8B 45 08		    mov eax, window
 00000339  50			    push eax
 0000033A  E8 00000000 E	    call sfRenderWindow_isOpen
 0000033F  83 C4 04		    add esp, 4
 00000342  85 C0		    test eax, eax
 00000344  74 41		    je @exit_program

				    ; 更新計時器
				    ;mov eax, clock
				    ;push eax
				    ;call sfClock_getElapsedTime
				    ;add esp, 4
				    ;test eax, eax
				    ;jz @exit_program               ; 如果時間返回無效，退出程式

				    ; 提取微秒並轉換為秒數
				    ;mov ebx, 1000000  ; 1,000,000 用於將微秒轉換為秒
				    ;xor edx, edx      ; 清除 edx，準備進行除法操作
				    ;div ebx           ; eax = microseconds / 1,000,000 (秒數)
				    ;cvtsi2ss xmm0, eax

				    ; 判斷是否生成新的音符
				    ;movss xmm1, note_interval
				    ;comiss xmm0, xmm1
				    ;jb @skip_generate_note  ; 若音符生成間隔未達一秒，跳過

				    ; 生成音符並重置計時器
				    ;call @generate_note
				    ;call sfClock_restart           ; 重置時鐘

				;@skip_generate_note:
				    ; 更新音符
				    ;call @update_notes

				    ; 清除視窗
 00000346  FF 35 0000A9FA R	    push blackColor
 0000034C  FF 75 08		    push window
 0000034F  E8 00000000 E	    call sfRenderWindow_clear
 00000354  83 C4 08		    add esp, 8

				    ; 繪製背景
 00000357  6A 00		    push 0
 00000359  A1 000000CA R	    mov eax, bgSprite
 0000035E  50			    push eax
 0000035F  8B 4D 08		    mov ecx, window
 00000362  51			    push ecx
 00000363  E8 00000000 E	    call sfRenderWindow_drawSprite
 00000368  83 C4 0C		    add esp, 12

				    ;繪製軌道
				    ;push 0
				    ;mov eax, DWORD PTR [track_shape]
				    ;push eax
				    ;mov ecx, DWORD PTR [window]
				    ;push ecx
				    ;call sfRenderWindow_drawRectangleShape
				    ;add esp, 12

				    ; 繪製音符
 0000036B  33 F6		    xor esi, esi
				;@draw_notes_loop:
				    ;cmp esi, noteCount
				    ;jge @end_draw_notes

				    ;mov eax, DWORD PTR [noteSprites + esi*4]
				    ;test eax, eax
				    ;jz @next_draw

				    ;push 0
				    ;push eax
				    ;mov ecx, window
				    ;push ecx
				    ;call sfRenderWindow_drawSprite
				    ;add esp, 12

				;@next_draw:
				    ;inc esi
				    ;jmp @draw_notes_loop
				;@end_draw_notes:

				    ; 顯示視窗
 0000036D  8B 45 08		    mov eax, window
 00000370  50			    push eax
 00000371  E8 00000000 E	    call sfRenderWindow_display
 00000376  83 C4 04		    add esp, 4

 00000379  EB A8		    jmp @main_loop

				; 跳轉結算畫面
 0000037B			to_end_page:
 0000037B  C7 05 00000000 E	    mov DWORD PTR [currentPage], 2
	   00000002
 00000385  EB 00		    jmp @exit_program

 00000387			@exit_program:
				    ;call @cleanup_notes

 00000387  FF 35 000000CA R	    push bgSprite
 0000038D  E8 00000000 E	    call sfSprite_destroy
 00000392  83 C4 04		    add esp, 4

 00000395  FF 35 000000C6 R	    push bgTexture
 0000039B  E8 00000000 E	    call sfTexture_destroy
 000003A0  83 C4 04		    add esp, 4

 000003A3  FF 35 000000CE R	    push redDrumTexture
 000003A9  E8 00000000 E	    call sfTexture_destroy
 000003AE  83 C4 04		    add esp, 4

 000003B1  FF 35 000000D2 R	    push blueDrumTexture
 000003B7  E8 00000000 E	    call sfTexture_destroy
 000003BC  83 C4 04		    add esp, 4

 000003BF  FF 35 00000D86 R	    push clock
 000003C5  E8 00000000 E	    call sfClock_destroy
 000003CA  83 C4 04		    add esp, 4

				    ;push dword ptr [track_shape]
				    ;call sfRectangleShape_destroy
				    ;add esp, 4

				    ret
 000003CF			main_game_page ENDP

				END main_game_page
Microsoft (R) Macro Assembler Version 14.42.34435.0	    12/19/24 23:39:20
main_game_page.asm					     Symbols 2 - 1




Structures and Unions:

                N a m e                  Size
                                         Offset      Type

Button . . . . . . . . . . . . .	 00000008
  shape  . . . . . . . . . . . .	 00000000	 DWord
  state  . . . . . . . . . . . .	 00000004	 DWord
Drum . . . . . . . . . . . . . .	 00000008
  sprite . . . . . . . . . . . .	 00000000	 DWord
  dtype  . . . . . . . . . . . .	 00000004	 DWord
key  . . . . . . . . . . . . . .	 00000014
  code . . . . . . . . . . . . .	 00000000	 DWord
  alt  . . . . . . . . . . . . .	 00000004	 DWord
  control  . . . . . . . . . . .	 00000008	 DWord
  shift  . . . . . . . . . . . .	 0000000C	 DWord
  system . . . . . . . . . . . .	 00000010	 DWord
mouseButton  . . . . . . . . . .	 0000000C
  button . . . . . . . . . . . .	 00000000	 DWord
  x  . . . . . . . . . . . . . .	 00000004	 DWord
  y  . . . . . . . . . . . . . .	 00000008	 DWord
sfColor  . . . . . . . . . . . .	 00000004
  r  . . . . . . . . . . . . . .	 00000000	 Byte
  g  . . . . . . . . . . . . . .	 00000001	 Byte
  b  . . . . . . . . . . . . . .	 00000002	 Byte
  a  . . . . . . . . . . . . . .	 00000003	 Byte
sfEvent  . . . . . . . . . . . .	 00000030
  _type  . . . . . . . . . . . .	 00000000	 DWord
  _size  . . . . . . . . . . . .	 00000004	 DWord
  mouse  . . . . . . . . . . . .	 00000008	 
  _key . . . . . . . . . . . . .	 00000014	 
  mouseMove  . . . . . . . . . .	 00000028	 QWord
sfFloatRect  . . . . . . . . . .	 00000010
  left . . . . . . . . . . . . .	 00000000	 DWord
  top  . . . . . . . . . . . . .	 00000004	 DWord
  _width . . . . . . . . . . . .	 00000008	 DWord
  height . . . . . . . . . . . .	 0000000C	 DWord
sfTime . . . . . . . . . . . . .	 00000004
  microseconds . . . . . . . . .	 00000000	 DWord
sfVector2f . . . . . . . . . . .	 00000008
  x  . . . . . . . . . . . . . .	 00000000	 DWord
  y  . . . . . . . . . . . . . .	 00000004	 DWord
sfVector2i . . . . . . . . . . .	 00000008
  x  . . . . . . . . . . . . . .	 00000000	 DWord
  y  . . . . . . . . . . . . . .	 00000004	 DWord
sfVideoMode  . . . . . . . . . .	 0000000C
  _width . . . . . . . . . . . .	 00000000	 DWord
  height . . . . . . . . . . . .	 00000004	 DWord
  bpp  . . . . . . . . . . . . .	 00000008	 DWord


Segments and Groups:

                N a m e                 Size     Length   Align   Combine Class

FLAT . . . . . . . . . . . . . .	GROUP
_DATA  . . . . . . . . . . . . .	32 Bit	 0000AE48 Para	  Public  'DATA'	
_TEXT  . . . . . . . . . . . . .	32 Bit	 000003CF Para	  Public  'CODE'	


Procedures, parameters, and locals:

                N a m e                 Type     Value    Attr

@load_bg . . . . . . . . . . . .	P Near	 00000040 _TEXT	Length= 00000044 Public C
  @fail_load . . . . . . . . . .	L Near	 0000007E _TEXT	
@load_blue_texture . . . . . . .	P Near	 0000011B _TEXT	Length= 0000001F Public C
  @fail_load . . . . . . . . . .	L Near	 00000134 _TEXT	
@load_red_texture  . . . . . . .	P Near	 000000FC _TEXT	Length= 0000001F Public C
  @fail_load . . . . . . . . . .	L Near	 00000115 _TEXT	
create_track . . . . . . . . . .	P Near	 00000084 _TEXT	Length= 00000078 Public C
dequeue  . . . . . . . . . . . .	P Near	 000001B3 _TEXT	Length= 0000004D Public C
  end_dequeue  . . . . . . . . .	L Near	 000001FF _TEXT	
enqueue  . . . . . . . . . . . .	P Near	 00000164 _TEXT	Length= 0000004F Public C
  end_enqueue  . . . . . . . . .	L Near	 000001B2 _TEXT	
game_play_music  . . . . . . . .	P Near	 00000000 _TEXT	Length= 0000001C Public C
isQueueEmpty . . . . . . . . . .	P Near	 0000014F _TEXT	Length= 00000015 Public C
  queue_empty  . . . . . . . . .	L Near	 0000015E _TEXT	
isQueueFull  . . . . . . . . . .	P Near	 0000013A _TEXT	Length= 00000015 Public C
  queue_full . . . . . . . . . .	L Near	 00000149 _TEXT	
main_game_page . . . . . . . . .	P Near	 000002FC _TEXT	Length= 000000D3 Public C
  window . . . . . . . . . . . .	DWord	 bp + 00000008
  @main_loop . . . . . . . . . .	L Near	 00000323 _TEXT	
  to_end_page  . . . . . . . . .	L Near	 0000037B _TEXT	
  @exit_program  . . . . . . . .	L Near	 00000387 _TEXT	
readFile . . . . . . . . . . . .	P Near	 0000001C _TEXT	Length= 00000024 Public C
spawnDrum  . . . . . . . . . . .	P Near	 00000200 _TEXT	Length= 00000047 Public C
  spawnRed . . . . . . . . . . .	L Near	 00000227 _TEXT	
  end_spawn  . . . . . . . . . .	L Near	 00000246 _TEXT	
updateDrums  . . . . . . . . . .	P Near	 00000247 _TEXT	Length= 000000B5 Public C
  update_queue . . . . . . . . .	L Near	 0000029F _TEXT	
  end_update . . . . . . . . . .	L Near	 000002FB _TEXT	


Symbols:

                N a m e                 Type     Value    Attr

@CodeSize  . . . . . . . . . . .	Number	 00000000h   
@DataSize  . . . . . . . . . . .	Number	 00000000h   
@Interface . . . . . . . . . . .	Number	 00000001h   
@Model . . . . . . . . . . . . .	Number	 00000007h   
@code  . . . . . . . . . . . . .	Text   	 _TEXT
@data  . . . . . . . . . . . . .	Text   	 FLAT
@fardata?  . . . . . . . . . . .	Text   	 FLAT
@fardata . . . . . . . . . . . .	Text   	 FLAT
@stack . . . . . . . . . . . . .	Text   	 FLAT
BUTTON_STATE_NORMAL  . . . . . .	Number	 00000000h   
BUTTON_STATE_PRESSED . . . . . .	Number	 00000001h   
CloseHandle@4  . . . . . . . . .	L Near	 00000000 FLAT	External C
CreateFileA@28 . . . . . . . . .	L Near	 00000000 FLAT	External C
DRUM_SPEED . . . . . . . . . . .	DWord	 000000AA _DATA	
Drum_struct_size . . . . . . . .	Number	 00000008h   
ExitProcess@4  . . . . . . . . .	L Near	 00000000 FLAT	External C
FILE_ATTRIBUTE_NORMAL  . . . . .	Text   	 80h
FILE_SHARE_READ  . . . . . . . .	Text   	 0x00000001
GENERIC_READ . . . . . . . . . .	Text   	 80000000h
GetLastError@0 . . . . . . . . .	L Near	 00000000 FLAT	External C
GetStdHandle@4 . . . . . . . . .	L Near	 00000000 FLAT	External C
MAX_DRUMS  . . . . . . . . . . .	Number	 00000064h   
MAX_LINE_LENGTH  . . . . . . . .	Number	 000003E8h   
MAX_NOTES  . . . . . . . . . . .	Number	 00002710h   
OPEN_EXISTING  . . . . . . . . .	Number	 00000003h   
ReadFile@20  . . . . . . . . . .	L Near	 00000000 FLAT	External C
SCREEN_HEIGHT  . . . . . . . . .	Number	 000002D0h   
SCREEN_WIDTH . . . . . . . . . .	Text   	 1280.0
STD_OUTPUT_HANDLE  . . . . . . .	Number	 -0000000Bh   
WriteConsoleA@20 . . . . . . . .	L Near	 00000000 FLAT	External C
WriteFile@20 . . . . . . . . . .	L Near	 00000000 FLAT	External C
bgSprite . . . . . . . . . . . .	DWord	 000000CA _DATA	
bgTexture  . . . . . . . . . . .	DWord	 000000C6 _DATA	
bg_path  . . . . . . . . . . . .	Byte	 00000000 _DATA	
bgmusic  . . . . . . . . . . . .	DWord	 00000D56 _DATA	
blackColor . . . . . . . . . . .	sfColor	 0000A9FA _DATA	
blueDrumTexture  . . . . . . . .	DWord	 000000D2 _DATA	
blue_drum_path . . . . . . . . .	Byte	 00000039 _DATA	
bpm  . . . . . . . . . . . . . .	DWord	 00000D8E _DATA	
bytesRead  . . . . . . . . . . .	DWord	 0000AA20 _DATA	
clock  . . . . . . . . . . . . .	DWord	 00000D86 _DATA	
create_button  . . . . . . . . .	L Near	 00000000 FLAT	External C
currentPage  . . . . . . . . . .	DWord	 00000000 FLAT	External C
current_drum . . . . . . . . . .	Drum	 00000D72 _DATA	
drumQueue  . . . . . . . . . . .	DWord	 000000D6 _DATA	
filename . . . . . . . . . . . .	Byte	 0000AA0A _DATA	
front  . . . . . . . . . . . . .	DWord	 00000D7A _DATA	
hFile  . . . . . . . . . . . . .	DWord	 0000AA1C _DATA	
initialPosition  . . . . . . . .	sfVector2f  0000A9FE _DATA	
msgReadFail  . . . . . . . . . .	Byte	 0000AE24 _DATA	
msgReadSuccess . . . . . . . . .	Byte	 0000AE38 _DATA	
noteSpawnInterval  . . . . . . .	DWord	 00000D92 _DATA	
note_timer . . . . . . . . . . .	DWord	 00000D8A _DATA	
notes  . . . . . . . . . . . . .	DWord	 00000D96 _DATA	
qsize  . . . . . . . . . . . . .	DWord	 00000D82 _DATA	
readBuffer . . . . . . . . . . .	Byte	 0000AA24 _DATA	
rear . . . . . . . . . . . . . .	DWord	 00000D7E _DATA	
redDrumTexture . . . . . . . . .	DWord	 000000CE _DATA	
red_drum_path  . . . . . . . . .	Byte	 00000020 _DATA	
selected_beatmap_path  . . . . .	Byte	 0000008B _DATA	
selected_music_path  . . . . . .	Byte	 00000053 _DATA	
sfClock_create . . . . . . . . .	L Near	 00000000 FLAT	External C
sfClock_destroy  . . . . . . . .	L Near	 00000000 FLAT	External C
sfClock_getElapsedTime . . . . .	L Near	 00000000 FLAT	External C
sfClock_restart  . . . . . . . .	L Near	 00000000 FLAT	External C
sfClose  . . . . . . . . . . . .	Number	 00000004h   
sfColor_fromRGBA . . . . . . . .	L Near	 00000000 FLAT	External C
sfColor_fromRGB  . . . . . . . .	L Near	 00000000 FLAT	External C
sfEvtClosed  . . . . . . . . . .	Number	 00000000h   
sfEvtGainedFocus . . . . . . . .	Number	 00000003h   
sfEvtKeyPressed  . . . . . . . .	Number	 00000005h   
sfEvtKeyReleased . . . . . . . .	Number	 00000006h   
sfEvtLostFocus . . . . . . . . .	Number	 00000002h   
sfEvtMouseButtonPressed  . . . .	Number	 00000009h   
sfEvtMouseButtonReleased . . . .	Number	 0000000Ah   
sfEvtMouseEntered  . . . . . . .	Number	 0000000Ch   
sfEvtMouseLeft . . . . . . . . .	Number	 0000000Dh   
sfEvtMouseMoved  . . . . . . . .	Number	 0000000Bh   
sfEvtMouseWheelMoved . . . . . .	Number	 00000007h   
sfEvtMouseWheelScrolled  . . . .	Number	 00000008h   
sfEvtResized . . . . . . . . . .	Number	 00000001h   
sfEvtTextEntered . . . . . . . .	Number	 00000004h   
sfFalse  . . . . . . . . . . . .	Number	 00000000h   
sfFont_createFromFile  . . . . .	L Near	 00000000 FLAT	External C
sfFont_destroy . . . . . . . . .	L Near	 00000000 FLAT	External C
sfFullscreen . . . . . . . . . .	Number	 00000008h   
sfKeyA . . . . . . . . . . . . .	Number	 00000000h   
sfKeyD . . . . . . . . . . . . .	Number	 00000003h   
sfKeyEnter . . . . . . . . . . .	Number	 0000003Ah   
sfKeyEscape  . . . . . . . . . .	Number	 00000024h   
sfKeyS . . . . . . . . . . . . .	Number	 00000012h   
sfMouseLeft  . . . . . . . . . .	Number	 00000000h   
sfMouseMiddle  . . . . . . . . .	Number	 00000002h   
sfMouseRight . . . . . . . . . .	Number	 00000001h   
sfMusic_createFromFile . . . . .	L Near	 00000000 FLAT	External C
sfMusic_destroy  . . . . . . . .	L Near	 00000000 FLAT	External C
sfMusic_getStatus  . . . . . . .	L Near	 00000000 FLAT	External C
sfMusic_play . . . . . . . . . .	L Near	 00000000 FLAT	External C
sfMusic_setLoop  . . . . . . . .	L Near	 00000000 FLAT	External C
sfMusic_stop . . . . . . . . . .	L Near	 00000000 FLAT	External C
sfNone . . . . . . . . . . . . .	Number	 00000000h   
sfRectangleShape_create  . . . .	L Near	 00000000 FLAT	External C
sfRectangleShape_destroy . . . .	L Near	 00000000 FLAT	External C
sfRectangleShape_setFillColor  .	L Near	 00000000 FLAT	External C
sfRectangleShape_setOutlineColor .	L Near	 00000000 FLAT	External C
sfRectangleShape_setOutlineThickness .	L Near	 00000000 FLAT	External C
sfRectangleShape_setPosition . .	L Near	 00000000 FLAT	External C
sfRectangleShape_setSize . . . .	L Near	 00000000 FLAT	External C
sfRenderWindow_clear . . . . . .	L Near	 00000000 FLAT	External C
sfRenderWindow_close . . . . . .	L Near	 00000000 FLAT	External C
sfRenderWindow_create  . . . . .	L Near	 00000000 FLAT	External C
sfRenderWindow_destroy . . . . .	L Near	 00000000 FLAT	External C
sfRenderWindow_display . . . . .	L Near	 00000000 FLAT	External C
sfRenderWindow_drawRectangleShape 	L Near	 00000000 FLAT	External C
sfRenderWindow_drawSprite  . . .	L Near	 00000000 FLAT	External C
sfRenderWindow_drawText  . . . .	L Near	 00000000 FLAT	External C
sfRenderWindow_isOpen  . . . . .	L Near	 00000000 FLAT	External C
sfRenderWindow_pollEvent . . . .	L Near	 00000000 FLAT	External C
sfResize . . . . . . . . . . . .	Number	 00000002h   
sfSleep  . . . . . . . . . . . .	L Near	 00000000 FLAT	External C
sfSprite_create  . . . . . . . .	L Near	 00000000 FLAT	External C
sfSprite_destroy . . . . . . . .	L Near	 00000000 FLAT	External C
sfSprite_getPosition . . . . . .	L Near	 00000000 FLAT	External C
sfSprite_move  . . . . . . . . .	L Near	 00000000 FLAT	External C
sfSprite_setOrigin . . . . . . .	L Near	 00000000 FLAT	External C
sfSprite_setPosition . . . . . .	L Near	 00000000 FLAT	External C
sfSprite_setTexture  . . . . . .	L Near	 00000000 FLAT	External C
sfText_create  . . . . . . . . .	L Near	 00000000 FLAT	External C
sfText_destroy . . . . . . . . .	L Near	 00000000 FLAT	External C
sfText_getGlobalBounds . . . . .	L Near	 00000000 FLAT	External C
sfText_getLocalBounds  . . . . .	L Near	 00000000 FLAT	External C
sfText_setCharacterSize  . . . .	L Near	 00000000 FLAT	External C
sfText_setFillColor  . . . . . .	L Near	 00000000 FLAT	External C
sfText_setFont . . . . . . . . .	L Near	 00000000 FLAT	External C
sfText_setOutlineColor . . . . .	L Near	 00000000 FLAT	External C
sfText_setOutlineThickness . . .	L Near	 00000000 FLAT	External C
sfText_setPosition . . . . . . .	L Near	 00000000 FLAT	External C
sfText_setString . . . . . . . .	L Near	 00000000 FLAT	External C
sfTexture_createFromFile . . . .	L Near	 00000000 FLAT	External C
sfTexture_destroy  . . . . . . .	L Near	 00000000 FLAT	External C
sfTitlebar . . . . . . . . . . .	Number	 00000001h   
sfTrue . . . . . . . . . . . . .	Number	 00000001h   
spritePosX . . . . . . . . . . .	DWord	 000000BE _DATA	
spritePosY . . . . . . . . . . .	DWord	 000000C2 _DATA	
stdout_handle  . . . . . . . . .	DWord	 0000AA06 _DATA	
totalNotes . . . . . . . . . . .	DWord	 0000A9D6 _DATA	
trackBounds  . . . . . . . . . .	sfFloatRect  00000D5A _DATA	
track_height . . . . . . . . . .	DWord	 000000AE _DATA	
track_shape  . . . . . . . . . .	Button	 00000D6A _DATA	
track_width  . . . . . . . . . .	DWord	 000000B2 _DATA	
track_x  . . . . . . . . . . . .	DWord	 000000B6 _DATA	
track_y  . . . . . . . . . . . .	DWord	 000000BA _DATA	
whiteColor . . . . . . . . . . .	sfColor	 0000A9F6 _DATA	
windowTitle  . . . . . . . . . .	Byte	 0000A9E6 _DATA	
window_videoMode . . . . . . . .	sfVideoMode  0000A9DA _DATA	

	   0 Warnings
	   0 Errors
