Microsoft (R) Macro Assembler Version 14.42.34435.0	    12/18/24 01:10:26
main_game_page.asm					     Page 1 - 1


				.686P
				.XMM
				.model flat, c
				include csfml.inc
			      C ; CSFML.INC - SFML Definitions for x86 Assembly
			      C ; 使用 MASM 語法
			      C 
			      C includelib csfml-audio.lib
			      C includelib csfml-graphics.lib
			      C includelib csfml-system.lib
			      C includelib csfml-window.lib
			      C 
			      C ; sfBool 定義
 = 00000000		      C sfFalse     equ 0
 = 00000001		      C sfTrue      equ 1
			      C 
			      C ; sfEventType 定義
 = 00000000		      C sfEvtClosed               equ 0
 = 00000001		      C sfEvtResized              equ 1
 = 00000002		      C sfEvtLostFocus            equ 2
 = 00000003		      C sfEvtGainedFocus          equ 3
 = 00000004		      C sfEvtTextEntered          equ 4
 = 00000005		      C sfEvtKeyPressed           equ 5
 = 00000006		      C sfEvtKeyReleased          equ 6
 = 00000007		      C sfEvtMouseWheelMoved      equ 7
 = 00000008		      C sfEvtMouseWheelScrolled   equ 8
 = 00000009		      C sfEvtMouseButtonPressed   equ 9
 = 0000000A		      C sfEvtMouseButtonReleased  equ 10
 = 0000000B		      C sfEvtMouseMoved           equ 11
 = 0000000C		      C sfEvtMouseEntered         equ 12
 = 0000000D		      C sfEvtMouseLeft            equ 13
			      C 
			      C ; sfMouseButton 定義
 = 00000000		      C sfMouseLeft   equ 0
 = 00000001		      C sfMouseRight  equ 1
 = 00000002		      C sfMouseMiddle equ 2
			      C 
			      C ; sfKey 定義
 = 0000003A		      C sfKeyEnter    equ 58
 = 00000000		      C sfKeyA        equ 0
 = 00000012		      C sfKeyS        equ 18
 = 00000003		      C sfKeyD        equ 3
 = 00000024		      C sfKeyEscape   equ 36
			      C 
			      C ; 視窗風格定義
 = 00000000		      C sfNone       equ 0
 = 00000001		      C sfTitlebar   equ 1
 = 00000002		      C sfResize     equ 2
 = 00000004		      C sfClose      equ 4
 = 00000008		      C sfFullscreen equ 8
			      C 
			      C ; 結構體定義
 00000008		      C sfVector2f STRUCT
 00000000  00000000	      C     x REAL4 ?
 00000004  00000000	      C     y REAL4 ?
			      C sfVector2f ENDS
			      C 
 00000008		      C sfVector2i STRUCT
 00000000  00000000	      C     x SDWORD ?
 00000004  00000000	      C     y SDWORD ?
			      C sfVector2i ENDS
			      C 
 0000000C		      C sfVideoMode STRUCT
 00000000  00000000	      C     _width  DWORD ?
 00000004  00000000	      C     height DWORD ?
 00000008  00000000	      C     bpp    DWORD ?
			      C sfVideoMode ENDS
			      C 
 00000004		      C sfColor STRUCT
 00000000  00		      C     r BYTE ?
 00000001  00		      C     g BYTE ?
 00000002  00		      C     b BYTE ?
 00000003  00		      C     a BYTE ?
			      C sfColor ENDS
			      C 
 00000010		      C sfFloatRect STRUCT
 00000000  00000000	      C     left   REAL4 ?
 00000004  00000000	      C     top    REAL4 ?
 00000008  00000000	      C     _width  REAL4 ?
 0000000C  00000000	      C     height REAL4 ?
			      C sfFloatRect ENDS
			      C 
 0000000C		      C mouseButton STRUCT
 00000000  00000000	      C     button DWORD ?
 00000004  00000000	      C     x DWORD ?
 00000008  00000000	      C     y DWORD ?
			      C mouseButton ENDS
			      C 
 00000014		      C key STRUCT
 00000000  00000000	      C     code DWORD ?
 00000004  00000000	      C     alt DWORD ?
 00000008  00000000	      C     control DWORD ?
 0000000C  00000000	      C     shift DWORD ?
 00000010  00000000	      C     system DWORD ?
			      C key ENDS
			      C 
 00000030		      C sfEvent STRUCT
 00000000  00000000	      C     _type DWORD ?                
 00000004  00000000	      C     _size DWORD ?                
 00000008  00000000	      C     mouse mouseButton <>       
	   00000000
	   00000000
 00000014  00000000	      C     _key key <>                 
	   00000000
	   00000000
	   00000000
	   00000000
 00000028  00000000	      C     mouseMove sfVector2i <>     
	   00000000
			      C sfEvent ENDS
			      C 
			      C ; 函數原型 - 視窗相關
			      C EXTERN sfRenderWindow_create:PROC
			      C EXTERN sfRenderWindow_destroy:PROC
			      C EXTERN sfRenderWindow_close:PROC
			      C EXTERN sfRenderWindow_isOpen:PROC
			      C EXTERN sfRenderWindow_clear:PROC
			      C EXTERN sfRenderWindow_display:PROC
			      C EXTERN sfRenderWindow_pollEvent:PROC
			      C EXTERN sfRenderWindow_drawSprite:PROC
			      C EXTERN sfRenderWindow_drawText:PROC
			      C 
			      C ; 函數原型 - 紋理相關
			      C EXTERN sfTexture_createFromFile:PROC
			      C EXTERN sfTexture_destroy:PROC
			      C 
			      C ; 函數原型 - 精靈相關
			      C EXTERN sfSprite_create:PROC
			      C EXTERN sfSprite_destroy:PROC
			      C EXTERN sfSprite_setTexture:PROC
			      C EXTERN sfSprite_setPosition:PROC
			      C EXTERN sfSprite_setOrigin:PROC
			      C 
			      C ; 函數原型 - 音樂相關
			      C EXTERN sfMusic_createFromFile:PROC
			      C EXTERN sfMusic_destroy:PROC
			      C EXTERN sfMusic_play:PROC
			      C EXTERN sfMusic_setLoop:PROC
			      C EXTERN sfMusic_stop: PROC
			      C EXTERN sfMusic_getStatus: PROC
			      C 
			      C ; 函數原型 - 文字相關
			      C EXTERN sfFont_createFromFile:PROC
			      C EXTERN sfFont_destroy:PROC
			      C EXTERN sfText_create:PROC
			      C EXTERN sfText_destroy:PROC
			      C EXTERN sfText_setFont:PROC
			      C EXTERN sfText_setString:PROC
			      C EXTERN sfText_setCharacterSize:PROC
			      C EXTERN sfText_setFillColor:PROC
			      C EXTERN sfText_setOutlineColor:PROC
			      C EXTERN sfText_setOutlineThickness:PROC
			      C EXTERN sfText_getLocalBounds:PROC
			      C EXTERN sfText_getGlobalBounds:PROC
			      C EXTERN sfText_setPosition:PROC
			      C 
			      C ; 函數原型 - 顏色相關
			      C EXTERN sfColor_fromRGB:PROC
			      C EXTERN sfColor_fromRGBA:PROC
			      C 
			      C ; 函數原型 - 矩形相關
			      C EXTERN sfRectangleShape_create: PROC
			      C EXTERN sfRectangleShape_setPosition: PROC
			      C EXTERN sfRectangleShape_setSize: PROC
			      C EXTERN sfRectangleShape_setFillColor: PROC
			      C EXTERN sfRectangleShape_setOutlineThickness: PROC
			      C EXTERN sfRenderWindow_drawRectangleShape: PROC
			      C EXTERN sfRectangleShape_destroy: PROC
			      C EXTERN sfRectangleShape_setOutlineColor: PROC
			      C 
			      C EXTERN sfSleep: PROC
			      C 
				;include windows.inc

				extern currentPage: DWORD

 00000000			.data
				    ; 檔案路徑
 00000000 61 73 73 65 74	    bg_path db "assets/main/bg_genre_2.png", 0
	   73 2F 6D 61 69
	   6E 2F 62 67 5F
	   67 65 6E 72 65
	   5F 32 2E 70 6E
	   67 00
 0000001B 61 73 73 65 74	    font_path db "assets/main/Taiko_No_Tatsujin_Official_Font.ttf", 0
	   73 2F 6D 61 69
	   6E 2F 54 61 69
	   6B 6F 5F 4E 6F
	   5F 54 61 74 73
	   75 6A 69 6E 5F
	   4F 66 66 69 63
	   69 61 6C 5F 46
	   6F 6E 74 2E 74
	   74 66 00

 0000004B 61 73 73 65 74	    selected_music_path db "assets/main/song1.ogg", 0
	   73 2F 6D 61 69
	   6E 2F 73 6F 6E
	   67 31 2E 6F 67
	   67 00
				    ;selected_beatmap1_path db "assets/main/beatmap1.tja", 0
 00000061 31 30 30 31 32	    selected_beatmap1 db "1001201000102010,1001202000002222,1001201000102000,0000000000112212", 0
	   30 31 30 30 30
	   31 30 32 30 31
	   30 2C 31 30 30
	   31 32 30 32 30
	   30 30 30 30 32
	   32 32 32 2C 31
	   30 30 31 32 30
	   31 30 30 30 31
	   30 32 30 30 30
	   2C 30 30 30 30
	   30 30 30 30 30
	   30 31 31 32 32
	   31 32 00
 000000A5 61 73 73 65 74	    red_note_path db "assets/main/red_note.png", 0
	   73 2F 6D 61 69
	   6E 2F 72 65 64
	   5F 6E 6F 74 65
	   2E 70 6E 67 00
 000000BE 61 73 73 65 74	    blue_note_path db "assets/main/blue_note.png", 0
	   73 2F 6D 61 69
	   6E 2F 62 6C 75
	   65 5F 6E 6F 74
	   65 2E 70 6E 67
	   00

				    ; CSFML 物件
 000000D8 00000000		    bgTexture dd 0               ; 背景紋理
 000000DC 00000000		    bgSprite dd 0                ; 背景精靈
				    ;circleTexture dd 0           ; 圓形音符紋理
				    ;circleSprite dd 0            ; 圓形音符精靈
 000000E0 00000000		    redNoteTexture dd 0          ; 紅色音符紋理
 000000E4 00000000		    blueNoteTexture dd 0         ; 藍色音符紋理
				    ;noteSprite dd 256 DUP(0)     ; 音符精靈
 000000E8 00000000		    noteSprite dd 0     ; 音符精靈
 000000EC 00000000		    font dd 0                    ; 字型
 000000F0 00000000		    scoreText dd 0               ; 分數文字
 000000F4 00000000		    comboText dd 0               ; 連擊文字
 000000F8 00000000		    bgMusic dd 0

				    ; 視窗設定
				    ;window_videoMode sfVideoMode <1280, 720, 32>
 000000FC 44A00000		    window_realWidth dd 044a00000r ; 1280.0
				    ; 事件結構
 00000100 00000000		    event sfEvent <>
	   00000000
	   00000000
	   00000000
	   00000000
	   00000000
	   00000000
	   00000000
	   00000000
	   00000000
	   00000000
	   00000000

				    ; 畫面設定
 00000130 00000500		    window_videoMode sfVideoMode <1280, 720, 32> ; 視窗大小與格式
	   000002D0
	   00000020
 0000013C 54 61 69 6B 6F	    windowTitle db "Taiko Simulator", 0          ; 視窗標題
	   20 53 69 6D 75
	   6C 61 74 6F 72
	   00
 0000014C 40A00000		    scrollSpeed REAL4 5.0        ; 音符滾動速度
 00000150 44160000		    laneHeight REAL4 600.0       ; 音符軌道高度

				    ; 顏色常數
 00000154 FF FF FF FF		    whiteColor sfColor <255, 255, 255, 255> ; 白色
 00000158 00 00 00 FF		    blackColor sfColor <0, 0, 0, 255>       ; 黑色

 0000015C 442F0000		    notePosition sfVector2f <700.0, 200.0>  ; 音符的 X 和 Y 座標
	   43480000

 00000000			.code

				; 載入背景
 00000000			@load_bg PROC
				    ; 創建背景紋理
 00000000  6A 00		    push 0
 00000002  68 00000000 R	    push offset bg_path
 00000007  E8 00000000 E	    call sfTexture_createFromFile
 0000000C  83 C4 08		    add esp, 8
 0000000F  A3 000000D8 R	    mov bgTexture, eax
				    
				    ; 創建背景精靈
 00000014  E8 00000000 E	    call sfSprite_create
 00000019  A3 000000DC R	    mov DWORD PTR [bgSprite], eax
				    
				    ; 設定紋理
 0000001E  6A 01		    push 1
 00000020  A1 000000D8 R	    mov eax, DWORD PTR [bgTexture]
 00000025  50			    push eax
 00000026  8B 0D 000000DC R	    mov ecx, DWORD PTR [bgSprite]
 0000002C  51			    push ecx
 0000002D  E8 00000000 E	   call sfSprite_setTexture
 00000032  83 C4 0C		    add esp, 12
 00000035  C3			    ret
 00000036			@load_bg ENDP

				; 載入音符
 00000036			@load_note PROC
				    ; 創建紅色音符紋理
 00000036  6A 00		    push 0
 00000038  68 000000A5 R	    push offset red_note_path
 0000003D  E8 00000000 E	    call sfTexture_createFromFile
 00000042  83 C4 08		    add esp, 8
 00000045  A3 000000E0 R	    mov redNoteTexture, eax

				    ; 創建音符精靈
 0000004A  E8 00000000 E	    call sfSprite_create
 0000004F  A3 000000E8 R	    mov DWORD PTR [noteSprite], eax

				    ; 設定紅色音符紋理
 00000054  6A 01		    push 1
 00000056  A1 000000E0 R	    mov eax, DWORD PTR [redNoteTexture]
 0000005B  50			    push eax
 0000005C  8B 0D 000000E8 R	    mov ecx, DWORD PTR [noteSprite]
 00000062  51			    push ecx
 00000063  E8 00000000 E	    call sfSprite_setTexture
 00000068  83 C4 0C		    add esp, 12

				    ; 設定位置 (使用 sfVector2f)
 0000006B  FF 35 00000160 R	    push dword ptr [notePosition+4] ; y 座標
 00000071  FF 35 0000015C R	    push dword ptr [notePosition]   ; x 座標
 00000077  A1 000000E8 R	    mov eax, DWORD PTR [noteSprite] ; 精靈指標
 0000007C  50			    push eax                       ; 精靈指標
 0000007D  E8 00000000 E	    call sfSprite_setPosition      ; 設定精靈位置
 00000082  83 C4 0C		    add esp, 12                    ; 清理堆疊

 00000085  C3			    ret
 00000086			@load_note ENDP


 00000086			game_play_music PROC
 00000086  68 0000004B R	    push offset selected_music_path
 0000008B  E8 00000000 E	    call sfMusic_createFromFile
 00000090  83 C4 04		    add esp, 4 
 00000093  A3 000000F8 R	    mov bgMusic, eax

 00000098  50			    push eax
 00000099  E8 00000000 E	    call sfMusic_play
 0000009E  83 C4 04		    add esp, 4
 000000A1  C3			    ret
 000000A2			game_play_music ENDP

 000000A2			main_game_page PROC window:DWORD

				   ; 載入背景
 000000A5  E8 FFFFFF56		    call @load_bg
 000000AA  85 C0		    test eax, eax
 000000AC  0F 84 0000009B	    jz @exit_program

				    ; 載入音符
 000000B2  E8 FFFFFF7F		    call @load_note
 000000B7  85 C0		    test eax, eax
 000000B9  0F 84 0000008E	    jz @exit_program
				    
				    ;mov bgMusic, 0
 000000BF  E8 FFFFFFC2		    call game_play_music

 000000C4			@main_loop:
				    
 000000C4  8B 45 08		    mov eax, DWORD PTR [window]
 000000C7  50			    push eax
 000000C8  E8 00000000 E	    call sfRenderWindow_isOpen
 000000CD  83 C4 04		    add esp, 4
 000000D0  85 C0		    test eax, eax
 000000D2  74 79		    je @exit_program

 000000D4			    @event_loop:
				        ; 事件處理
 000000D4  8D 35 00000100 R	        lea esi, event
 000000DA  56			        push esi
 000000DB  8B 45 08		        mov eax, window
 000000DE  50			        push eax
 000000DF  E8 00000000 E	        call sfRenderWindow_pollEvent
 000000E4  83 C4 08		        add esp, 8
 000000E7  85 C0		        test eax, eax
 000000E9  74 11		        je @render_window
				    
				        ; 檢查關閉事件
 000000EB  83 3E 00		        cmp dword ptr [esi].sfEvent._type, sfEvtClosed
 000000EE  74 53		        je @end

				        ; 檢查滑鼠點擊
 000000F0  83 3E 09		        cmp dword ptr [esi].sfEvent._type, sfEvtMouseButtonPressed
 000000F3  74 07		        je @render_window

				        ; 檢查按鍵事件 (按下空白鍵模擬音符判定)
 000000F5  83 3E 05		        cmp dword ptr [esi].sfEvent._type, sfEvtKeyPressed
 000000F8  74 49		        je @end

 000000FA  EB D8		        jmp @event_loop
				    
 000000FC			@render_window: 
				    ; 清除視窗
 000000FC  FF 35 00000158 R	    push blackColor
 00000102  FF 75 08		    push window
 00000105  E8 00000000 E	    call sfRenderWindow_clear
 0000010A  83 C4 08		    add esp, 8
				    
				    ; 繪製背景
 0000010D  6A 00		    push 0
 0000010F  A1 000000DC R	    mov eax, DWORD PTR [bgSprite]
 00000114  50			    push eax
 00000115  8B 4D 08		    mov ecx, DWORD PTR [window]
 00000118  51			    push ecx
 00000119  E8 00000000 E	    call sfRenderWindow_drawSprite
 0000011E  83 C4 0C		    add esp, 12

 00000121  6A 00		    push 0
 00000123  A1 000000E8 R	    mov eax, DWORD PTR [noteSprite]
 00000128  50			    push eax
 00000129  8B 4D 08		    mov ecx, DWORD PTR [window]
 0000012C  51			    push ecx
 0000012D  E8 00000000 E	    call sfRenderWindow_drawSprite
 00000132  83 C4 0C		    add esp, 12

				    ; 顯示視窗
 00000135  8B 45 08		    mov eax, DWORD PTR [window]
 00000138  50			    push eax
 00000139  E8 00000000 E	    call sfRenderWindow_display
 0000013E  83 C4 04		    add esp, 4

 00000141  EB 81		    jmp @main_loop

 00000143			@end:
 00000143  C7 05 00000000 E	    mov DWORD PTR [currentPage], -1
	   FFFFFFFF

 0000014D			@exit_program:
 0000014D  FF 35 000000F8 R	     push bgMusic
 00000153  E8 00000000 E	    call sfMusic_destroy
 00000158  83 C4 04		    add esp, 4

 0000015B  FF 35 000000DC R	    push bgSprite
 00000161  E8 00000000 E	    call sfSprite_destroy
 00000166  83 C4 04		    add esp, 4

 00000169  FF 35 000000D8 R	    push bgTexture
 0000016F  E8 00000000 E	    call sfTexture_destroy
 00000174  83 C4 04		    add esp, 4

 00000177  FF 35 000000F0 R	    push scoreText
 0000017D  E8 00000000 E	    call sfText_destroy
 00000182  83 C4 04		    add esp, 4

 00000185  FF 35 000000F4 R	    push comboText
 0000018B  E8 00000000 E	    call sfText_destroy
 00000190  83 C4 04		    add esp, 4

 00000193  FF 35 000000EC R	    push font
 00000199  E8 00000000 E	    call sfFont_destroy
 0000019E  83 C4 04		    add esp, 4 

				    ;push circleSprite
				    ;call sfSprite_destroy
				    ;add esp, 4

 000001A1  FF 35 000000E4 R	    push blueNoteTexture
 000001A7  E8 00000000 E	    call sfTexture_destroy
 000001AC  83 C4 04		    add esp, 4

 000001AF  FF 35 000000E0 R	    push redNoteTexture
 000001B5  E8 00000000 E	    call sfTexture_destroy
 000001BA  83 C4 04		    add esp, 4

 000001BD  FF 35 000000E8 R	    push NoteSprite
 000001C3  E8 00000000 E	    call sfTexture_destroy
 000001C8  83 C4 04		    add esp, 4

				    ret

 000001CD			main_game_page ENDP

				END main_game_page
Microsoft (R) Macro Assembler Version 14.42.34435.0	    12/18/24 01:10:26
main_game_page.asm					     Symbols 2 - 1




Structures and Unions:

                N a m e                  Size
                                         Offset      Type

key  . . . . . . . . . . . . . .	 00000014
  code . . . . . . . . . . . . .	 00000000	 DWord
  alt  . . . . . . . . . . . . .	 00000004	 DWord
  control  . . . . . . . . . . .	 00000008	 DWord
  shift  . . . . . . . . . . . .	 0000000C	 DWord
  system . . . . . . . . . . . .	 00000010	 DWord
mouseButton  . . . . . . . . . .	 0000000C
  button . . . . . . . . . . . .	 00000000	 DWord
  x  . . . . . . . . . . . . . .	 00000004	 DWord
  y  . . . . . . . . . . . . . .	 00000008	 DWord
sfColor  . . . . . . . . . . . .	 00000004
  r  . . . . . . . . . . . . . .	 00000000	 Byte
  g  . . . . . . . . . . . . . .	 00000001	 Byte
  b  . . . . . . . . . . . . . .	 00000002	 Byte
  a  . . . . . . . . . . . . . .	 00000003	 Byte
sfEvent  . . . . . . . . . . . .	 00000030
  _type  . . . . . . . . . . . .	 00000000	 DWord
  _size  . . . . . . . . . . . .	 00000004	 DWord
  mouse  . . . . . . . . . . . .	 00000008	 
  _key . . . . . . . . . . . . .	 00000014	 
  mouseMove  . . . . . . . . . .	 00000028	 QWord
sfFloatRect  . . . . . . . . . .	 00000010
  left . . . . . . . . . . . . .	 00000000	 DWord
  top  . . . . . . . . . . . . .	 00000004	 DWord
  _width . . . . . . . . . . . .	 00000008	 DWord
  height . . . . . . . . . . . .	 0000000C	 DWord
sfVector2f . . . . . . . . . . .	 00000008
  x  . . . . . . . . . . . . . .	 00000000	 DWord
  y  . . . . . . . . . . . . . .	 00000004	 DWord
sfVector2i . . . . . . . . . . .	 00000008
  x  . . . . . . . . . . . . . .	 00000000	 DWord
  y  . . . . . . . . . . . . . .	 00000004	 DWord
sfVideoMode  . . . . . . . . . .	 0000000C
  _width . . . . . . . . . . . .	 00000000	 DWord
  height . . . . . . . . . . . .	 00000004	 DWord
  bpp  . . . . . . . . . . . . .	 00000008	 DWord


Segments and Groups:

                N a m e                 Size     Length   Align   Combine Class

FLAT . . . . . . . . . . . . . .	GROUP
_DATA  . . . . . . . . . . . . .	32 Bit	 00000164 Para	  Public  'DATA'	
_TEXT  . . . . . . . . . . . . .	32 Bit	 000001CD Para	  Public  'CODE'	


Procedures, parameters, and locals:

                N a m e                 Type     Value    Attr

@load_bg . . . . . . . . . . . .	P Near	 00000000 _TEXT	Length= 00000036 Public C
@load_note . . . . . . . . . . .	P Near	 00000036 _TEXT	Length= 00000050 Public C
game_play_music  . . . . . . . .	P Near	 00000086 _TEXT	Length= 0000001C Public C
main_game_page . . . . . . . . .	P Near	 000000A2 _TEXT	Length= 0000012B Public C
  window . . . . . . . . . . . .	DWord	 bp + 00000008
  @main_loop . . . . . . . . . .	L Near	 000000C4 _TEXT	
  @event_loop  . . . . . . . . .	L Near	 000000D4 _TEXT	
  @render_window . . . . . . . .	L Near	 000000FC _TEXT	
  @end . . . . . . . . . . . . .	L Near	 00000143 _TEXT	
  @exit_program  . . . . . . . .	L Near	 0000014D _TEXT	


Symbols:

                N a m e                 Type     Value    Attr

@CodeSize  . . . . . . . . . . .	Number	 00000000h   
@DataSize  . . . . . . . . . . .	Number	 00000000h   
@Interface . . . . . . . . . . .	Number	 00000001h   
@Model . . . . . . . . . . . . .	Number	 00000007h   
@code  . . . . . . . . . . . . .	Text   	 _TEXT
@data  . . . . . . . . . . . . .	Text   	 FLAT
@fardata?  . . . . . . . . . . .	Text   	 FLAT
@fardata . . . . . . . . . . . .	Text   	 FLAT
@stack . . . . . . . . . . . . .	Text   	 FLAT
bgMusic  . . . . . . . . . . . .	DWord	 000000F8 _DATA	
bgSprite . . . . . . . . . . . .	DWord	 000000DC _DATA	
bgTexture  . . . . . . . . . . .	DWord	 000000D8 _DATA	
bg_path  . . . . . . . . . . . .	Byte	 00000000 _DATA	
blackColor . . . . . . . . . . .	sfColor	 00000158 _DATA	
blueNoteTexture  . . . . . . . .	DWord	 000000E4 _DATA	
blue_note_path . . . . . . . . .	Byte	 000000BE _DATA	
comboText  . . . . . . . . . . .	DWord	 000000F4 _DATA	
currentPage  . . . . . . . . . .	DWord	 00000000 FLAT	External C
event  . . . . . . . . . . . . .	sfEvent	 00000100 _DATA	
font_path  . . . . . . . . . . .	Byte	 0000001B _DATA	
font . . . . . . . . . . . . . .	DWord	 000000EC _DATA	
laneHeight . . . . . . . . . . .	DWord	 00000150 _DATA	
notePosition . . . . . . . . . .	sfVector2f  0000015C _DATA	
noteSprite . . . . . . . . . . .	DWord	 000000E8 _DATA	
redNoteTexture . . . . . . . . .	DWord	 000000E0 _DATA	
red_note_path  . . . . . . . . .	Byte	 000000A5 _DATA	
scoreText  . . . . . . . . . . .	DWord	 000000F0 _DATA	
scrollSpeed  . . . . . . . . . .	DWord	 0000014C _DATA	
selected_beatmap1  . . . . . . .	Byte	 00000061 _DATA	
selected_music_path  . . . . . .	Byte	 0000004B _DATA	
sfClose  . . . . . . . . . . . .	Number	 00000004h   
sfColor_fromRGBA . . . . . . . .	L Near	 00000000 FLAT	External C
sfColor_fromRGB  . . . . . . . .	L Near	 00000000 FLAT	External C
sfEvtClosed  . . . . . . . . . .	Number	 00000000h   
sfEvtGainedFocus . . . . . . . .	Number	 00000003h   
sfEvtKeyPressed  . . . . . . . .	Number	 00000005h   
sfEvtKeyReleased . . . . . . . .	Number	 00000006h   
sfEvtLostFocus . . . . . . . . .	Number	 00000002h   
sfEvtMouseButtonPressed  . . . .	Number	 00000009h   
sfEvtMouseButtonReleased . . . .	Number	 0000000Ah   
sfEvtMouseEntered  . . . . . . .	Number	 0000000Ch   
sfEvtMouseLeft . . . . . . . . .	Number	 0000000Dh   
sfEvtMouseMoved  . . . . . . . .	Number	 0000000Bh   
sfEvtMouseWheelMoved . . . . . .	Number	 00000007h   
sfEvtMouseWheelScrolled  . . . .	Number	 00000008h   
sfEvtResized . . . . . . . . . .	Number	 00000001h   
sfEvtTextEntered . . . . . . . .	Number	 00000004h   
sfFalse  . . . . . . . . . . . .	Number	 00000000h   
sfFont_createFromFile  . . . . .	L Near	 00000000 FLAT	External C
sfFont_destroy . . . . . . . . .	L Near	 00000000 FLAT	External C
sfFullscreen . . . . . . . . . .	Number	 00000008h   
sfKeyA . . . . . . . . . . . . .	Number	 00000000h   
sfKeyD . . . . . . . . . . . . .	Number	 00000003h   
sfKeyEnter . . . . . . . . . . .	Number	 0000003Ah   
sfKeyEscape  . . . . . . . . . .	Number	 00000024h   
sfKeyS . . . . . . . . . . . . .	Number	 00000012h   
sfMouseLeft  . . . . . . . . . .	Number	 00000000h   
sfMouseMiddle  . . . . . . . . .	Number	 00000002h   
sfMouseRight . . . . . . . . . .	Number	 00000001h   
sfMusic_createFromFile . . . . .	L Near	 00000000 FLAT	External C
sfMusic_destroy  . . . . . . . .	L Near	 00000000 FLAT	External C
sfMusic_getStatus  . . . . . . .	L Near	 00000000 FLAT	External C
sfMusic_play . . . . . . . . . .	L Near	 00000000 FLAT	External C
sfMusic_setLoop  . . . . . . . .	L Near	 00000000 FLAT	External C
sfMusic_stop . . . . . . . . . .	L Near	 00000000 FLAT	External C
sfNone . . . . . . . . . . . . .	Number	 00000000h   
sfRectangleShape_create  . . . .	L Near	 00000000 FLAT	External C
sfRectangleShape_destroy . . . .	L Near	 00000000 FLAT	External C
sfRectangleShape_setFillColor  .	L Near	 00000000 FLAT	External C
sfRectangleShape_setOutlineColor .	L Near	 00000000 FLAT	External C
sfRectangleShape_setOutlineThickness .	L Near	 00000000 FLAT	External C
sfRectangleShape_setPosition . .	L Near	 00000000 FLAT	External C
sfRectangleShape_setSize . . . .	L Near	 00000000 FLAT	External C
sfRenderWindow_clear . . . . . .	L Near	 00000000 FLAT	External C
sfRenderWindow_close . . . . . .	L Near	 00000000 FLAT	External C
sfRenderWindow_create  . . . . .	L Near	 00000000 FLAT	External C
sfRenderWindow_destroy . . . . .	L Near	 00000000 FLAT	External C
sfRenderWindow_display . . . . .	L Near	 00000000 FLAT	External C
sfRenderWindow_drawRectangleShape 	L Near	 00000000 FLAT	External C
sfRenderWindow_drawSprite  . . .	L Near	 00000000 FLAT	External C
sfRenderWindow_drawText  . . . .	L Near	 00000000 FLAT	External C
sfRenderWindow_isOpen  . . . . .	L Near	 00000000 FLAT	External C
sfRenderWindow_pollEvent . . . .	L Near	 00000000 FLAT	External C
sfResize . . . . . . . . . . . .	Number	 00000002h   
sfSleep  . . . . . . . . . . . .	L Near	 00000000 FLAT	External C
sfSprite_create  . . . . . . . .	L Near	 00000000 FLAT	External C
sfSprite_destroy . . . . . . . .	L Near	 00000000 FLAT	External C
sfSprite_setOrigin . . . . . . .	L Near	 00000000 FLAT	External C
sfSprite_setPosition . . . . . .	L Near	 00000000 FLAT	External C
sfSprite_setTexture  . . . . . .	L Near	 00000000 FLAT	External C
sfText_create  . . . . . . . . .	L Near	 00000000 FLAT	External C
sfText_destroy . . . . . . . . .	L Near	 00000000 FLAT	External C
sfText_getGlobalBounds . . . . .	L Near	 00000000 FLAT	External C
sfText_getLocalBounds  . . . . .	L Near	 00000000 FLAT	External C
sfText_setCharacterSize  . . . .	L Near	 00000000 FLAT	External C
sfText_setFillColor  . . . . . .	L Near	 00000000 FLAT	External C
sfText_setFont . . . . . . . . .	L Near	 00000000 FLAT	External C
sfText_setOutlineColor . . . . .	L Near	 00000000 FLAT	External C
sfText_setOutlineThickness . . .	L Near	 00000000 FLAT	External C
sfText_setPosition . . . . . . .	L Near	 00000000 FLAT	External C
sfText_setString . . . . . . . .	L Near	 00000000 FLAT	External C
sfTexture_createFromFile . . . .	L Near	 00000000 FLAT	External C
sfTexture_destroy  . . . . . . .	L Near	 00000000 FLAT	External C
sfTitlebar . . . . . . . . . . .	Number	 00000001h   
sfTrue . . . . . . . . . . . . .	Number	 00000001h   
whiteColor . . . . . . . . . . .	sfColor	 00000154 _DATA	
windowTitle  . . . . . . . . . .	Byte	 0000013C _DATA	
window_realWidth . . . . . . . .	DWord	 000000FC _DATA	
window_videoMode . . . . . . . .	sfVideoMode  00000130 _DATA	

	   0 Warnings
	   0 Errors
