Microsoft (R) Macro Assembler Version 14.41.34120.0	    12/29/24 00:29:26
select_music_page.asm					     Page 1 - 1


				.686P
				.XMM
				.model flat, c
				include csfml.inc
			      C ; CSFML.INC - SFML Definitions for x86 Assembly
			      C ; ®œ•Œ MASM ªy™k
			      C 
			      C includelib csfml-audio.lib
			      C includelib csfml-graphics.lib
			      C includelib csfml-system.lib
			      C includelib csfml-window.lib
			      C 
			      C ; sfBool ©w∏q
 = 00000000		      C sfFalse     equ 0
 = 00000001		      C sfTrue      equ 1
			      C 
			      C ; sfMusic status
 = 00000000		      C sfStopped   equ 0
 = 00000001		      C sfPaused    equ 1
 = 00000002		      C sfPlaying   equ 2
			      C 
			      C 
			      C ; sfEventType ©w∏q
 = 00000000		      C sfEvtClosed               equ 0
 = 00000001		      C sfEvtResized              equ 1
 = 00000002		      C sfEvtLostFocus            equ 2
 = 00000003		      C sfEvtGainedFocus          equ 3
 = 00000004		      C sfEvtTextEntered          equ 4
 = 00000005		      C sfEvtKeyPressed           equ 5
 = 00000006		      C sfEvtKeyReleased          equ 6
 = 00000007		      C sfEvtMouseWheelMoved      equ 7
 = 00000008		      C sfEvtMouseWheelScrolled   equ 8
 = 00000009		      C sfEvtMouseButtonPressed   equ 9
 = 0000000A		      C sfEvtMouseButtonReleased  equ 10
 = 0000000B		      C sfEvtMouseMoved           equ 11
 = 0000000C		      C sfEvtMouseEntered         equ 12
 = 0000000D		      C sfEvtMouseLeft            equ 13
			      C 
			      C ; sfMouseButton ©w∏q
 = 00000000		      C sfMouseLeft   equ 0
 = 00000001		      C sfMouseRight  equ 1
 = 00000002		      C sfMouseMiddle equ 2
			      C 
			      C ; sfKey ©w∏q
 = 0000003A		      C sfKeyEnter    equ 58
 = 00000000		      C sfKeyA        equ 0
 = 00000012		      C sfKeyS        equ 18
 = 00000003		      C sfKeyD        equ 3
 = 00000024		      C sfKeyEscape   equ 36
 = 00000005		      C sfKeyF        equ 5
 = 00000009		      C sfKeyJ        equ 9
 = 0000000A		      C sfKeyK        equ 10
			      C 
			      C ; µ¯µ°≠∑ÆÊ©w∏q
 = 00000000		      C sfNone       equ 0
 = 00000001		      C sfTitlebar   equ 1
 = 00000002		      C sfResize     equ 2
 = 00000004		      C sfClose      equ 4
 = 00000008		      C sfFullscreen equ 8
			      C 
			      C ; µ≤∫c≈È©w∏q
 00000008		      C sfVector2f STRUCT
 00000000  00000000	      C     x REAL4 ?
 00000004  00000000	      C     y REAL4 ?
			      C sfVector2f ENDS
			      C 
 00000008		      C sfVector2i STRUCT
 00000000  00000000	      C     x SDWORD ?
 00000004  00000000	      C     y SDWORD ?
			      C sfVector2i ENDS
			      C 
 0000000C		      C sfVideoMode STRUCT
 00000000  00000000	      C     _width  DWORD ?
 00000004  00000000	      C     height DWORD ?
 00000008  00000000	      C     bpp    DWORD ?
			      C sfVideoMode ENDS
			      C 
 00000004		      C sfColor STRUCT
 00000000  00		      C     r BYTE ?
 00000001  00		      C     g BYTE ?
 00000002  00		      C     b BYTE ?
 00000003  00		      C     a BYTE ?
			      C sfColor ENDS
			      C 
 00000010		      C sfFloatRect STRUCT
 00000000  00000000	      C     left   REAL4 ?
 00000004  00000000	      C     top    REAL4 ?
 00000008  00000000	      C     _width  REAL4 ?
 0000000C  00000000	      C     height REAL4 ?
			      C sfFloatRect ENDS
			      C 
 0000000C		      C mouseButton STRUCT
 00000000  00000000	      C     button DWORD ?
 00000004  00000000	      C     x DWORD ?
 00000008  00000000	      C     y DWORD ?
			      C mouseButton ENDS
			      C 
 00000014		      C key STRUCT
 00000000  00000000	      C     code DWORD ?
 00000004  00000000	      C     alt DWORD ?
 00000008  00000000	      C     control DWORD ?
 0000000C  00000000	      C     shift DWORD ?
 00000010  00000000	      C     system DWORD ?
			      C key ENDS
			      C 
 00000030		      C sfEvent STRUCT
 00000000  00000000	      C     _type DWORD ?                
 00000004  00000000	      C     _size DWORD ?                
 00000008  00000000	      C     mouse mouseButton <>       
	   00000000
	   00000000
 00000014  00000000	      C     _key key <>                 
	   00000000
	   00000000
	   00000000
	   00000000
 00000028  00000000	      C     mouseMove sfVector2i <>     
	   00000000
			      C sfEvent ENDS
			      C 
			      C ; ®Áº∆≠Ï´¨ - µ¯µ°¨€√ˆ
			      C EXTERN sfRenderWindow_create:PROC
			      C EXTERN sfRenderWindow_destroy:PROC
			      C EXTERN sfRenderWindow_close:PROC
			      C EXTERN sfRenderWindow_isOpen:PROC
			      C EXTERN sfRenderWindow_clear:PROC
			      C EXTERN sfRenderWindow_display:PROC
			      C EXTERN sfRenderWindow_pollEvent:PROC
			      C EXTERN sfRenderWindow_drawSprite:PROC
			      C EXTERN sfRenderWindow_drawText:PROC
			      C 
			      C EXTERN sfWindow_setFramerateLimit:PROC
			      C 
			      C ; ®Áº∆≠Ï´¨ - Øæ≤z¨€√ˆ
			      C EXTERN sfTexture_createFromFile:PROC
			      C EXTERN sfTexture_destroy:PROC
			      C 
			      C ; ®Áº∆≠Ï´¨ - ∫Î∆F¨€√ˆ
			      C EXTERN sfSprite_create:PROC
			      C EXTERN sfSprite_destroy:PROC
			      C EXTERN sfSprite_setTexture:PROC
			      C EXTERN sfSprite_setPosition:PROC
			      C EXTERN sfSprite_getPosition:PROC
			      C 
			      C ; ®Áº∆≠Ï´¨ - ≠µº÷¨€√ˆ
			      C EXTERN sfMusic_createFromFile:PROC
			      C EXTERN sfMusic_destroy:PROC
			      C EXTERN sfMusic_play:PROC
			      C EXTERN sfMusic_setLoop:PROC
			      C EXTERN sfMusic_stop: PROC
			      C EXTERN sfMusic_getStatus: PROC
			      C 
			      C ; ®Áº∆≠Ï´¨ - §Â¶r¨€√ˆ
			      C EXTERN sfFont_createFromFile:PROC
			      C EXTERN sfFont_destroy:PROC
			      C EXTERN sfText_create:PROC
			      C EXTERN sfText_destroy:PROC
			      C EXTERN sfText_setFont:PROC
			      C EXTERN sfText_setString:PROC
			      C EXTERN sfText_setCharacterSize:PROC
			      C EXTERN sfText_setFillColor:PROC
			      C EXTERN sfText_setOutlineColor:PROC
			      C EXTERN sfText_setOutlineThickness:PROC
			      C EXTERN sfText_getLocalBounds:PROC
			      C EXTERN sfText_getGlobalBounds:PROC
			      C EXTERN sfText_setPosition:PROC
			      C 
			      C ; ®Áº∆≠Ï´¨ - √C¶‚¨€√ˆ
			      C EXTERN sfColor_fromRGB:PROC
			      C EXTERN sfColor_fromRGBA:PROC
			      C 
			      C ; ®Áº∆≠Ï´¨ - ∂ÍßŒ¨€√ˆ
			      C EXTERN sfCircleShape_create: PROC
			      C EXTERN sfCircleShape_setPosition: PROC
			      C EXTERN sfCircleShape_setRadius: PROC
			      C EXTERN sfCircleShape_setFillColor: PROC
			      C EXTERN sfRenderWindow_drawCircleShape: PROC
			      C EXTERN sfCircleShape_destroy: PROC
			      C EXTERN sfCircleShape_setOutlineThickness: PROC
			      C EXTERN sfCircleShape_setOutlineColor: PROC
			      C 
			      C ; ®Áº∆≠Ï´¨ - ØxßŒ¨€√ˆ
			      C EXTERN sfRectangleShape_create: PROC
			      C EXTERN sfRectangleShape_setPosition: PROC
			      C EXTERN sfRectangleShape_setSize: PROC
			      C EXTERN sfRectangleShape_setFillColor: PROC
			      C EXTERN sfRectangleShape_setOutlineThickness: PROC
			      C EXTERN sfRenderWindow_drawRectangleShape: PROC
			      C EXTERN sfRectangleShape_destroy: PROC
			      C EXTERN sfRectangleShape_setOutlineColor: PROC
			      C 
			      C EXTERN sfSleep: PROC
			      C EXTERN sfClock_create: PROC
			      C EXTERN sfClock_getElapsedTime: PROC
			      C EXTERN sfClock_restart: PROC
			      C 
				include file.inc
			      C includelib ucrt.lib
			      C includelib kernel32.lib
			      C 
			      C 
 0000000C		      C Drum struct
 00000000  00000000	      C 	sprite dword ?
 00000004  00000000	      C 	_type dword ?
 00000008  00000000	      C 	targetTime real4 ?
			      C Drum ends
			      C 
 00000018		      C GameStats struct
 00000000  00000000	      C 	great_count DWORD ? 
 00000004  00000000	      C 	good_count DWORD ? 
 00000008  00000000	      C 	miss_count DWORD ? 
 0000000C  00000000	      C 	current_combo DWORD ? 
 00000010  00000000	      C 	max_combo DWORD ? 
 00000014  00000000	      C 	total_score DWORD ? 
			      C GameStats ends
			      C 
 00000014		      C MusicInfo struct
 00000000  00000000	      C 	bpm real4 ?
 00000004  00000000	      C 	_offset real4 ?
 00000008  00000000	      C 	spawnTime real4 ?
 0000000C  00000000	      C 	currentBar dword ?
 00000010  00000000	      C 	notesInBar dword ?
			      C MusicInfo ends
			      C 
			      C extern malloc:proc
			      C extern fopen:proc
			      C extern fclose:proc
			      C extern fgets:proc
			      C 
			      C 
			      C ; string
			      C 
			      C extern strcspn:proc
			      C extern strncmp:proc
			      C ;extern __imp____stdio_common_vsscanf:proc
			      C extern strtok_s:proc
			      C extern strlen:proc
			      C 

				extern currentPage: DWORD
				extern main_game_page: proc

 = 00000000			BUTTON_STATE_NORMAL equ 0
 = 00000001			BUTTON_STATE_PRESSED equ 1

 00000008			Button STRUCT
 00000000  00000000		    shape dd ?
 00000004  00000000		    state dd ?
				Button ENDS

 00000000			.data
				    ; Ê™îÊ°àË∑ØÂæë
 00000000 61 73 73 65 74	    music1_path db "assets/music/Yoru ni Kakeru.ogg", 0
	   73 2F 6D 75 73
	   69 63 2F 59 6F
	   72 75 20 6E 69
	   20 4B 61 6B 65
	   72 75 2E 6F 67
	   67 00
 00000020 61 73 73 65 74	    music2_path db "assets/music/Zen Zen Zense.ogg", 0
	   73 2F 6D 75 73
	   69 63 2F 5A 65
	   6E 20 5A 65 6E
	   20 5A 65 6E 73
	   65 2E 6F 67 67
	   00
 0000003F 61 73 73 65 74	    music3_path db "assets/music/Zenryoku Shounen.ogg", 0
	   73 2F 6D 75 73
	   69 63 2F 5A 65
	   6E 72 79 6F 6B
	   75 20 53 68 6F
	   75 6E 65 6E 2E
	   6F 67 67 00
 00000061 61 73 73 65 74	    bg_path db "assets/main/song_select_bg.jpg", 0
	   73 2F 6D 61 69
	   6E 2F 73 6F 6E
	   67 5F 73 65 6C
	   65 63 74 5F 62
	   67 2E 6A 70 67
	   00
 00000080 61 73 73 65 74	    font_path db "assets/main/Taiko_No_Tatsujin_Official_Font.ttf", 0
	   73 2F 6D 61 69
	   6E 2F 54 61 69
	   6B 6F 5F 4E 6F
	   5F 54 61 74 73
	   75 6A 69 6E 5F
	   4F 66 66 69 63
	   69 61 6C 5F 46
	   6F 6E 74 2E 74
	   74 66 00
				   
				   ; music1 Ë≥áÊñô
 000000B0 43020000		   music1Info MusicInfo <130.000000, -1.962000, 115.384613>
	   BFFB22D1
	   42E6C4EC
	   00000000
	   00000000
 000000C4 00000001		   music1_notes dword 1, 1, 1, 1, 2, 1, 1, 1, 1, 1, 2, 1, 1, 1, 1, 1, 1, 2, 1, 1, 1, 1, 1, 1, 1, 1, 1, 1, 1, 1
	   00000001
	   00000001
	   00000001
	   00000002
	   00000001
	   00000001
	   00000001
	   00000001
	   00000001
	   00000002
	   00000001
	   00000001
	   00000001
	   00000001
	   00000001
	   00000001
	   00000002
	   00000001
	   00000001
	   00000001
	   00000001
	   00000001
	   00000001
	   00000001
	   00000001
	   00000001
	   00000001
	   00000001
	   00000001
 0000013C  00000002		                dword 2, 2, 1, 1, 1, 1, 1, 1, 2, 1, 1, 1, 1, 2, 1, 2, 1, 2, 1, 1, 1, 1, 1, 2, 2, 1, 1, 1, 1, 1
	   00000002
	   00000001
	   00000001
	   00000001
	   00000001
	   00000001
	   00000001
	   00000002
	   00000001
	   00000001
	   00000001
	   00000001
	   00000002
	   00000001
	   00000002
	   00000001
	   00000002
	   00000001
	   00000001
	   00000001
	   00000001
	   00000001
	   00000002
	   00000002
	   00000001
	   00000001
	   00000001
	   00000001
	   00000001
 000001B4  00000001		                dword 1, 1, 1, 1, 1, 1, 1, 1, 1, 2, 1, 1, 1, 1, 1, 1, 1, 1, 1, 1, 1, 1, 1, 1, 1, 1, 2, 2, 1, 1
	   00000001
	   00000001
	   00000001
	   00000001
	   00000001
	   00000001
	   00000001
	   00000001
	   00000002
	   00000001
	   00000001
	   00000001
	   00000001
	   00000001
	   00000001
	   00000001
	   00000001
	   00000001
	   00000001
	   00000001
	   00000001
	   00000001
	   00000001
	   00000001
	   00000001
	   00000002
	   00000002
	   00000001
	   00000001
 0000022C 0000005A		   music1_totalNotes dword 90
 00000230 00000000		   music1_noteTimings real4 0.000000, 0.923077, 1.846154, 2.769229, 3.653842, 7.384611, 8.307688, 9.230764, 10.153841, 11.076918, 12.884617, 14.769233, 15.692309, 16.615387, 17.538464, 18.461540, 19.384617, 20.307693, 22.153847, 23.076923, 24.000000, 24.923077, 25.846153, 26.769230, 27.692307, 29.076921, 29.538460, 31.384613, 33.230766, 35.076920
	   3F6C4EC6
	   3FEC4EC6
	   40313B0C
	   4069D88C
	   40EC4EBC
	   4104EC4A
	   4113B136
	   41227622
	   41313B0E
	   414E2764
	   416C4EC7
	   417B13B3
	   4184EC50
	   418C4EC6
	   4193B13C
	   419B13B2
	   41A27628
	   41B13B14
	   41B89D8A
	   41C00000
	   41C76276
	   41CEC4EC
	   41D62762
	   41DD89D8
	   41E89D89
	   41EC4EC4
	   41FB13B0
	   4204EC4E
	   420C4EC4
 000002A8  4213B13A		                real4 36.923073, 38.769226, 40.615379, 44.307686, 45.230762, 46.153839, 47.999992, 48.923069, 49.846146, 51.692299, 52.615376, 53.538452, 55.384605, 56.961456, 59.076828, 60.922981, 62.769135, 65.538368, 66.461449, 67.384529, 68.307610, 70.153763, 71.076843, 71.999924, 73.846077, 74.769157, 75.692238, 76.153778, 76.615318, 77.538399
	   421B13B0
	   42227626
	   42313B12
	   4234EC4D
	   42389D88
	   423FFFFE
	   4243B139
	   42476274
	   424EC4EA
	   42527625
	   42562760
	   425D89D6
	   4263D888
	   426C4EAC
	   4273B122
	   427B1398
	   428313A5
	   4284EC43
	   4286C4E1
	   42889D7F
	   428C4EBA
	   428E2758
	   428FFFF6
	   4293B131
	   429589CF
	   4297626D
	   42984EBC
	   42993B0B
	   429B13A9
 00000320  429CEC47		                real4 78.461479, 79.384560, 79.846100, 80.307640, 81.230721, 81.692261, 82.153801, 83.076881, 83.538422, 83.999962, 84.923042, 88.615349, 89.538429, 90.461510, 90.923050, 91.384590, 92.307671, 93.230751, 94.153831, 94.615372, 95.076912, 95.999992, 96.461533, 96.923073, 97.846153, 98.307693, 98.769234, 99.692314, 100.615395, 101.538475
	   429EC4E5
	   429FB134
	   42A09D83
	   42A27621
	   42A36270
	   42A44EBF
	   42A6275D
	   42A713AC
	   42A7FFFB
	   42A9D899
	   42B13B0F
	   42B313AD
	   42B4EC4B
	   42B5D89A
	   42B6C4E9
	   42B89D87
	   42BA7625
	   42BC4EC3
	   42BD3B12
	   42BE2761
	   42BFFFFF
	   42C0EC4E
	   42C1D89D
	   42C3B13B
	   42C49D8A
	   42C589D9
	   42C76277
	   42C93B15
	   42CB13B3

 00000398 433E0000		    music2Info MusicInfo <190.000000, -1.688, 78.947365>
	   BFD81062
	   429DE50D
	   00000000
	   00000000
 000003AC 00000001		    music2_notes dword 1, 1, 1, 1, 1, 1, 1, 1, 1, 2, 2, 2, 1, 1, 1, 1, 1, 1, 2, 1, 2, 1, 1, 1, 1, 1, 1, 1, 1, 1
	   00000001
	   00000001
	   00000001
	   00000001
	   00000001
	   00000001
	   00000001
	   00000001
	   00000002
	   00000002
	   00000002
	   00000001
	   00000001
	   00000001
	   00000001
	   00000001
	   00000001
	   00000002
	   00000001
	   00000002
	   00000001
	   00000001
	   00000001
	   00000001
	   00000001
	   00000001
	   00000001
	   00000001
	   00000001
 00000424  00000001		                 dword 1, 2, 1, 1, 1, 2, 2, 1, 1, 1, 2, 2, 2, 1, 2, 1, 1, 1, 2, 2, 2, 2, 1, 2, 1, 1, 1, 1, 1, 2
	   00000002
	   00000001
	   00000001
	   00000001
	   00000002
	   00000002
	   00000001
	   00000001
	   00000001
	   00000002
	   00000002
	   00000002
	   00000001
	   00000002
	   00000001
	   00000001
	   00000001
	   00000002
	   00000002
	   00000002
	   00000002
	   00000001
	   00000002
	   00000001
	   00000001
	   00000001
	   00000001
	   00000001
	   00000002
 0000049C  00000002		                 dword 2, 1, 2, 1, 1, 1, 1, 1, 2, 2, 1, 2, 1, 2, 2, 1, 2, 1, 2, 2, 1, 2, 1, 2, 1, 1, 1, 1, 2, 2
	   00000001
	   00000002
	   00000001
	   00000001
	   00000001
	   00000001
	   00000001
	   00000002
	   00000002
	   00000001
	   00000002
	   00000001
	   00000002
	   00000002
	   00000001
	   00000002
	   00000001
	   00000002
	   00000002
	   00000001
	   00000002
	   00000001
	   00000002
	   00000001
	   00000001
	   00000001
	   00000001
	   00000002
	   00000002
 00000514  00000002		                 dword 2, 1, 1, 1, 1, 1, 1, 1, 2, 1, 1, 1, 2, 2, 1, 1, 1, 1, 1, 1, 1, 2, 1, 1, 1, 2, 2, 2, 1, 1, 1
	   00000001
	   00000001
	   00000001
	   00000001
	   00000001
	   00000001
	   00000001
	   00000002
	   00000001
	   00000001
	   00000001
	   00000002
	   00000002
	   00000001
	   00000001
	   00000001
	   00000001
	   00000001
	   00000001
	   00000001
	   00000002
	   00000001
	   00000001
	   00000001
	   00000002
	   00000002
	   00000002
	   00000001
	   00000001
	   00000001
 00000590 00000079		    music2_totalNotes dword 121
 00000594 3F769186		    music2_noteTimings real4 0.963158, 1.910526, 3.489474, 4.121053, 4.752632, 5.068421, 5.384211, 6.015789, 6.647368, 7.278947, 7.594736, 7.910525, 8.542104, 9.173683, 9.805262, 10.121051, 10.436840, 11.068419, 12.147362, 12.331572, 13.278939, 13.594728, 14.226307, 15.489464, 16.121042, 18.647358, 18.963148, 19.278938, 19.910519, 20.226307
	   3FF48C1E
	   405F538B
	   4083DFAB
	   40981590
	   40A23081
	   40AC4B75
	   40C08158
	   40D4B73D
	   40E8ED22
	   40F30814
	   40FD2305
	   4108AC75
	   4112C768
	   411CE25A
	   4121EFD3
	   4126FD4C
	   4131183F
	   41425B98
	   41454E1E
	   41547689
	   41598402
	   41639EF4
	   4177D4D8
	   4180F7E5
	   41952DCA
	   4197B487
	   419A3B44
	   419F48BE
	   41A1CF7A
 0000060C  41A45636		                       real4 20.542095, 21.015778, 21.621038, 23.699982, 24.331560, 25.594717, 26.226295, 28.752609, 29.068399, 29.384190, 30.015770, 30.331560, 30.647350, 31.278931, 31.884192, 33.805279, 34.121067, 34.436855, 35.068432, 35.384220, 35.700008, 36.015797, 36.331585, 37.252701, 38.857986, 39.173775, 39.489563, 40.121140, 40.436928, 40.752716
	   41A82050
	   41ACF7E3
	   41BD9990
	   41C2A709
	   41CCC1FB
	   41D1CF74
	   41E60558
	   41E88C15
	   41EB12D2
	   41F0204C
	   41F2A709
	   41F52DC6
	   41FA3B40
	   41FF12D3
	   4207389B
	   42087BF9
	   4209BF57
	   420C4613
	   420D8971
	   420ECCCF
	   4210102D
	   4211538B
	   421502C4
	   421B6E94
	   421CB1F2
	   421DF550
	   42207C0C
	   4221BF6A
	   422302C8
 00000684  42244626		                       real4 41.068504, 41.384293, 43.279030, 43.910610, 44.226398, 44.542187, 45.173763, 45.489552, 45.805340, 46.121128, 46.436916, 48.331654, 48.963234, 50.226391, 50.857971, 51.489552, 52.752708, 54.015865, 55.279022, 55.910603, 56.542183, 58.726456, 59.068584, 60.331741, 60.963322, 61.594902, 61.910690, 62.226479, 62.700161, 63.331738
	   42258984
	   422D1DBA
	   422FA477
	   4230E7D5
	   42322B33
	   4234B1EF
	   4235F54D
	   423738AB
	   42387C09
	   4239BF67
	   4241539D
	   4243DA5A
	   4248E7D3
	   424B6E90
	   424DF54D
	   425302C6
	   4258103F
	   425D1DB8
	   425FA475
	   42622B32
	   426AE7E4
	   426C463B
	   427153B4
	   4273DA71
	   4276612E
	   4277A48C
	   4278E7EA
	   427ACCF7
	   427D53B3
 000006FC  42803E0F		                       real4 64.121208, 65.515938, 66.331665, 66.963219, 67.594795, 68.226372, 68.857948, 69.173737, 71.068474, 71.700050, 72.015846, 72.331642, 72.805336, 73.436928, 74.226418, 75.621147, 76.436874, 77.068428, 77.700005, 78.331589, 78.963181, 79.121078, 80.226341, 81.805290, 82.436867, 83.068443, 83.384239, 83.700035, 84.173729, 85.726357, 86.226318
	   42830829
	   4284A9D0
	   4285ED2B
	   42873089
	   428873E7
	   4289B745
	   428A58F4
	   428E230F
	   428F666D
	   4290081D
	   4290A9CD
	   42919C55
	   4292DFB5
	   429473ED
	   42973E07
	   4298DFAE
	   429A2309
	   429B6667
	   429CA9C6
	   429DED26
	   429E3DFE
	   42A073E3
	   42A39C4F
	   42A4DFAD
	   42A6230B
	   42A6C4BB
	   42A7666B
	   42A858F3
	   42AB73E5
	   42AC73E0
				    ; ÊèêÁ§∫ÊñáÂ≠ó

 00000778 43060000		    music3Info MusicInfo <134.000000, -7.430000, 111.515877>
	   C0EDC28F
	   42DF0821
	   00000000
	   00000000
 0000078C 00000001		    music3_notes dword 1, 2, 1, 2, 2, 1, 2, 2, 2, 2, 1, 1, 1, 2, 2, 2, 2, 1, 1, 1, 1, 1, 1, 1, 1, 1, 1, 1, 1, 2
	   00000002
	   00000001
	   00000002
	   00000002
	   00000001
	   00000002
	   00000002
	   00000002
	   00000002
	   00000001
	   00000001
	   00000001
	   00000002
	   00000002
	   00000002
	   00000002
	   00000001
	   00000001
	   00000001
	   00000001
	   00000001
	   00000001
	   00000001
	   00000001
	   00000001
	   00000001
	   00000001
	   00000001
	   00000002
 00000804  00000002		                 dword 2, 1, 1, 1, 1, 1, 1, 1, 1, 1, 1, 1, 1, 1, 1, 2, 2, 1, 1, 1, 1, 1, 1, 1, 1, 1, 1, 1, 1, 1
	   00000001
	   00000001
	   00000001
	   00000001
	   00000001
	   00000001
	   00000001
	   00000001
	   00000001
	   00000001
	   00000001
	   00000001
	   00000001
	   00000001
	   00000002
	   00000002
	   00000001
	   00000001
	   00000001
	   00000001
	   00000001
	   00000001
	   00000001
	   00000001
	   00000001
	   00000001
	   00000001
	   00000001
	   00000001
 0000087C  00000001		                 dword 1, 1, 1, 2, 1, 1, 1, 1, 1, 1, 1, 1, 1, 2, 2, 2, 2, 2, 2, 2, 2, 1, 1, 1, 1, 1, 1, 1, 1, 1
	   00000001
	   00000001
	   00000002
	   00000001
	   00000001
	   00000001
	   00000001
	   00000001
	   00000001
	   00000001
	   00000001
	   00000001
	   00000002
	   00000002
	   00000002
	   00000002
	   00000002
	   00000002
	   00000002
	   00000002
	   00000001
	   00000001
	   00000001
	   00000001
	   00000001
	   00000001
	   00000001
	   00000001
	   00000001
 000008F4  00000001		                 dword 1, 2, 2, 1, 2, 1, 1, 1
	   00000002
	   00000002
	   00000001
	   00000002
	   00000001
	   00000001
	   00000001
 00000914 00000062		    music3_totalNotes dword 98
 00000918 40ABF0B9		    music3_noteTimings real4 5.373135, 7.164181, 8.955227, 10.746273, 11.417915, 12.537319, 12.985081, 13.880604, 14.776127, 15.671650, 16.119411, 17.835831, 19.701504, 20.149265, 21.044788, 21.940311, 22.835835, 23.283596, 25.000015, 26.865688, 28.656734, 29.552258, 30.447781, 30.895542, 32.238815, 33.134293, 33.805901, 35.820724, 36.716202, 37.387810
	   40E540F9
	   410F489C
	   412BF0BC
	   4136AFC8
	   414898DC
	   414FC2E4
	   415E16F4
	   416C6B04
	   417ABF14
	   4180F48E
	   418EAFC8
	   419D9CAE
	   41A131B2
	   41A85BBA
	   41AF85C2
	   41B6AFCA
	   41BA44CE
	   41C80008
	   41D6ECEE
	   41E540FE
	   41EC6B06
	   41F3950E
	   41F72A12
	   4200F48C
	   42048984
	   4207393E
	   420F486C
	   4212DD64
	   42158D1E
 00000990  42192216		                       real4 38.283287, 39.402634, 39.850372, 40.298111, 40.969719, 42.238312, 42.984543, 43.880020, 44.775497, 45.223236, 46.566452, 47.461929, 48.133537, 50.148361, 51.043839, 51.715446, 52.610924, 53.730270, 54.625748, 55.297356, 57.312180, 58.207657, 59.103134, 59.998611, 60.894089, 61.341827, 61.789566, 62.461174, 65.296982, 66.267181
	   421D9C4C
	   421F66C8
	   42213144
	   4223E0FE
	   4228F408
	   422BF02C
	   422F8524
	   42331A1C
	   4234E498
	   423A440C
	   423DD904
	   424088BE
	   424897EC
	   424C2CE4
	   424EDC9E
	   42527196
	   4256EBCC
	   425A80C4
	   425D307E
	   42653FAC
	   4268D4A4
	   426C699C
	   426FFE94
	   4273938C
	   42755E08
	   42772884
	   4279D83E
	   4282980E
	   428488CC
 00000A08  42856E10		                       real4 66.714966, 68.058319, 68.729996, 69.625565, 70.894287, 71.640594, 72.088379, 72.536163, 73.879517, 74.327301, 75.222870, 75.670654, 76.118439, 77.461792, 77.909576, 78.805145, 79.252930, 80.596283, 81.044067, 81.491852, 81.939636, 82.387421, 84.178467, 85.969513, 86.417297, 86.865082, 88.208435, 88.656219, 89.551788, 89.999573
	   42881DDC
	   428975C2
	   428B404A
	   428DC9E0
	   428F47FC
	   42902D40
	   42911284
	   4293C250
	   4294A794
	   4296721C
	   42975760
	   42983CA4
	   429AEC70
	   429BD1B4
	   429D9C3C
	   429E8180
	   42A1314C
	   42A21690
	   42A2FBD4
	   42A3E118
	   42A4C65C
	   42A85B60
	   42ABF064
	   42ACD5A8
	   42ADBAEC
	   42B06AB8
	   42B14FFC
	   42B31A84
	   42B3FFC8
 00000A80  42B4E50C		                       real4 90.447357, 91.790710, 92.238495, 93.134064, 93.805740, 94.701309, 95.596878, 96.716339
	   42B794D8
	   42B87A1C
	   42BA44A4
	   42BB9C8A
	   42BD6712
	   42BF319A
	   42C16EC4

 00000AA0 59 6F 72 75 20	    song1_string db "Yoru ni Kakeru", 0
	   6E 69 20 4B 61
	   6B 65 72 75 00
 00000AAF 5A 65 6E 20 5A	    song2_string  db "Zen Zen Zense", 0
	   65 6E 20 5A 65
	   6E 73 65 00
 00000ABD 5A 65 6E 72 79	    song3_string  db "Zenryoku Shounen", 0
	   6F 6B 75 20 53
	   68 6F 75 6E 65
	   6E 00
 00000ACE 55 73 65 20 41	    instruction_string db "Use A/S/D to select songs", 0Dh, 0Ah, 0Dh, 0Ah,"F/J to hit the red note   K/D to hit the blue note", 0
	   2F 53 2F 44 20
	   74 6F 20 73 65
	   6C 65 63 74 20
	   73 6F 6E 67 73
	   0D 0A 0D 0A 46
	   2F 4A 20 74 6F
	   20 68 69 74 20
	   74 68 65 20 72
	   65 64 20 6E 6F
	   74 65 20 20 20
	   4B 2F 44 20 74
	   6F 20 68 69 74
	   20 74 68 65 20
	   62 6C 75 65 20
	   6E 6F 74 65 00
				    
				    ; CSFMLÁâ©‰ª∂
				    ; window dd 0
 00000B1E 00000000		    bgTexture dd 0
 00000B22 00000000		    bgSprite dd 0
 00000B26 00000000		    bgMusic dd 0
 00000B2A 00000000		    font dd 0

 00000B2E 00000000		    song1Text dd 0
 00000B32 00000000		    song2Text dd 0
 00000B36 00000000		    song3Text dd 0
 00000B3A 00000000		    instructionText dd 0


 00000B3E 00000000		    KeyA_state dd 0 ; ËøΩËπ§ÊåâÈçµÊòØÂê¶Êåâ‰∏ã
 00000B42 00000000		    KeyS_state dd 0
 00000B46 00000000		    KeyD_state dd 0

 00000B4A 00000000		    song1Bounds sfFloatRect <>
	   00000000
	   00000000
	   00000000
 00000B5A 00000000		    song2Bounds sfFloatRect <>
	   00000000
	   00000000
	   00000000
 00000B6A 00000000		    song3Bounds sfFloatRect <>
	   00000000
	   00000000
	   00000000
 00000B7A 00000000		    instructionBounds sfFloatRect <>
	   00000000
	   00000000
	   00000000

				    ; Ë¶ñÁ™óË®≠ÂÆö
				    ;window_videoMode sfVideoMode <1280, 720, 32>
 00000B8A 44A00000		    window_realWidth dd 044a00000r ; 1280.0
				    ; ‰∫ã‰ª∂ÁµêÊßã
 00000B8E 00000000		    event sfEvent <>
	   00000000
	   00000000
	   00000000
	   00000000
	   00000000
	   00000000
	   00000000
	   00000000
	   00000000
	   00000000
	   00000000

				    ; È°èËâ≤Â∏∏Êï∏
 00000BBE A9 A9 A9 FF		    gray_color sfColor <169, 169, 169, 255>
 00000BC2 69 69 69 FF		    dark_gray_color sfColor <105, 105, 105, 255>
 00000BC6 D2 D2 D2 FF		    light_gray_color sfColor <210, 210, 210, 255>
 00000BCA FF EF C6 FF		    beige_color sfColor <255, 239, 198, 255>
 00000BCE 00 00 00 FF		    black_color sfColor <0, 0, 0, 255>

				    ; ÊåâÈàïÁâ©‰ª∂
 00000BD2 00000000		    button1_shape Button <>
	   00000000
 00000BDA 00000000		    button2_shape Button <>
	   00000000
 00000BE2 00000000		    button3_shape Button <>
	   00000000
 00000BEA 00000000		    instruction_shape Button <>
	   00000000
				        
				    ; Â∏∏Êï∏
 00000BF2 43C80000		    button_x REAL4 400.0
 00000BF6 43160000		    button1_y REAL4 150.0
 00000BFA 437A0000		    button2_y REAL4 250.0
 00000BFE 43AF0000		    button3_y REAL4 350.0
 00000C02 43200000		    instruction_x REAL4 160.0
 00000C06 43FA0000		    instruction_y REAL4 500.0
 00000C0A 43F00000		    button_width REAL4 480.0
 00000C0E 44700000		    instruction_width REAL4 960.0
 00000C12 42700000		    button_height REAL4 60.0
 00000C16 43160000		    instruction_height REAL4 150.0
 00000C1A 40400000		    outline_thickness REAL4 3.0

 00000C1E 40000000		    two dd 2.0
 00000C22 43200000		    const_160 dd 160.0
 00000C26 43820000		    const_260 dd 260.0
 00000C2A 43B40000		    const_360 dd 360.0
 00000C2E 44020000		    const_550 dd 520.0

 00000000			.code

				; ËºâÂÖ•ËÉåÊôØ
 00000000			@load_background PROC
				    ; ÂâµÂª∫ËÉåÊôØÁ¥ãÁêÜ
 00000000  6A 00		    push 0
 00000002  68 00000061 R	    push offset bg_path
 00000007  E8 00000000 E	    call sfTexture_createFromFile
 0000000C  83 C4 08		    add esp, 8
 0000000F  A3 00000B1E R	    mov bgTexture, eax
				    
				    ; ÂâµÂª∫ËÉåÊôØÁ≤æÈùà
 00000014  E8 00000000 E	    call sfSprite_create
 00000019  A3 00000B22 R	    mov DWORD PTR [bgSprite], eax
				    
				    ; Ë®≠ÂÆöÁ¥ãÁêÜ
 0000001E  6A 01		    push 1
 00000020  A1 00000B1E R	    mov eax, DWORD PTR [bgTexture]
 00000025  50			    push eax
 00000026  8B 0D 00000B22 R	    mov ecx, DWORD PTR [bgSprite]
 0000002C  51			    push ecx
 0000002D  E8 00000000 E	   call sfSprite_setTexture
 00000032  83 C4 0C		    add esp, 12
 00000035  C3			    ret
 00000036			@load_background ENDP


 00000036			play_music PROC
 00000036  A1 00000B26 R	    mov eax, bgMusic
 0000003B  83 F8 00		    cmp eax, 0
 0000003E  74 21		    je @create_music
 00000040  FF 35 00000B26 R	    push dword ptr [bgMusic]
 00000046  E8 00000000 E	    call sfMusic_getStatus
 0000004B  83 C4 04		    add esp, 4
 0000004E  83 F8 02		    cmp eax, 2
 00000051  75 0E		    jne @create_music

 00000053			    @stop_music:
 00000053  FF 35 00000B26 R		   push bgMusic
 00000059  E8 00000000 E		   call sfMusic_stop
 0000005E  83 C4 04			   add esp, 4

 00000061			    @create_music:
 00000061  FF 74 24 04				push [esp+4]
 00000065  E8 00000000 E			call sfMusic_createFromFile
 0000006A  83 C4 04				add esp, 4 
 0000006D  A3 00000B26 R			mov bgMusic, eax

 00000072  50					push eax
 00000073  E8 00000000 E			call sfMusic_play
 00000078  83 C4 04				add esp, 4
 0000007B  C3					ret
 0000007C			play_music ENDP

				; Ë®≠ÂÆöSong1ÊñáÂ≠ó
 0000007C			setup_song1_text PROC
				    ; Create font
 0000007C  68 00000080 R	    push offset font_path
 00000081  E8 00000000 E	    call sfFont_createFromFile
 00000086  83 C4 04		    add esp, 4
 00000089  A3 00000B2A R	    mov font, eax
				    
				    ; Create text object
 0000008E  E8 00000000 E	    call sfText_create
 00000093  A3 00000B2E R	    mov DWORD PTR [song1Text], eax
				    
				    ; Set font
 00000098  FF 35 00000B2A R	    push font
 0000009E  A1 00000B2E R	    mov eax, DWORD PTR [song1Text]
 000000A3  50			    push eax
 000000A4  E8 00000000 E	    call sfText_setFont
 000000A9  83 C4 08		    add esp, 8
				    
				    ; Set string
 000000AC  68 00000AA0 R	    push offset song1_string
 000000B1  A1 00000B2E R	    mov eax, DWORD PTR [song1Text]
 000000B6  50			    push eax
 000000B7  E8 00000000 E	    call sfText_setString
 000000BC  83 C4 08		    add esp, 8
				    
				    ; Set character size
 000000BF  6A 20		    push 32
 000000C1  A1 00000B2E R	    mov eax, DWORD PTR [song1Text]
 000000C6  50			    push eax
 000000C7  E8 00000000 E	    call sfText_setCharacterSize
 000000CC  83 C4 08		    add esp, 8
				    
				    ; Set fill color
 000000CF  FF 35 00000BCE R	    push black_color
 000000D5  A1 00000B2E R	    mov eax, DWORD PTR [song1Text]
 000000DA  50			    push eax
 000000DB  E8 00000000 E	    call sfText_setFillColor
 000000E0  83 C4 08		    add esp, 8
				        
				    ; Set position
 000000E3  83 EC 10		    sub esp, 16
 000000E6  8D 04 24		    lea eax, [esp]

 000000E9  FF 35 00000B2E R	    push DWORD PTR [song1Text]
 000000EF  50			    push eax
 000000F0  E8 00000000 E	    call sfText_getLocalBounds
 000000F5  83 C4 08		    add esp, 8

 000000F8  8B 10		    mov edx, DWORD PTR [eax]
 000000FA  89 15 00000B4A R	    mov DWORD PTR [song1Bounds.left], edx
 00000100  8B 48 04		    mov ecx, DWORD PTR [eax+4]
 00000103  89 0D 00000B4E R	    mov DWORD PTR [song1Bounds.top], ecx
 00000109  8B 50 08		    mov edx, DWORD PTR [eax+8]
 0000010C  89 15 00000B52 R	    mov DWORD PTR [song1Bounds._width], edx
 00000112  8B 40 0C		    mov eax, DWORD PTR [eax+12]
 00000115  A3 00000B56 R	    mov DWORD PTR [song1Bounds.height], eax

 0000011A  83 C4 10		    add esp, 16
				    
				    ; Adjust position
 0000011D  F3/ 0F 10 05		    movss xmm0, DWORD PTR [window_realWidth]
	   00000B8A R
 00000125  F3/ 0F 5C 05		    subss xmm0, DWORD PTR [song1Bounds._width]
	   00000B52 R
 0000012D  F3/ 0F 10 0D		    movss xmm1, DWORD PTR [two]
	   00000C1E R
 00000135  F3/ 0F 5E C1		    divss xmm0, xmm1
 00000139  F3/ 0F 11 44 24	    movss DWORD PTR [esp-8], xmm0
	   F8
				    
 0000013F  F3/ 0F 10 05		    movss xmm0, DWORD PTR [const_160]
	   00000C22 R
 00000147  F3/ 0F 11 44 24	    movss DWORD PTR [esp-4], xmm0
	   FC

 0000014D  8B F4		    mov esi, esp

 0000014F  FF 76 FC		    push DWORD PTR [esi-4] ; y (200.0)
 00000152  FF 76 F8		    push DWORD PTR [esi-8] ; x (centered)
 00000155  FF 35 00000B2E R	    push DWORD PTR [song1Text]
 0000015B  E8 00000000 E	    call sfText_setPosition
 00000160  83 C4 0C		    add esp, 12

 00000163  C3			    ret
 00000164			setup_song1_text ENDP

				; Ë®≠ÂÆöSong2ÊñáÂ≠ó
 00000164			setup_song2_text PROC
				    ; Create font
 00000164  68 00000080 R	    push offset font_path
 00000169  E8 00000000 E	    call sfFont_createFromFile
 0000016E  83 C4 04		    add esp, 4
 00000171  A3 00000B2A R	    mov font, eax
				    
				    ; Create text object
 00000176  E8 00000000 E	    call sfText_create
 0000017B  A3 00000B32 R	    mov DWORD PTR [song2Text], eax
				    
				    ; Set font
 00000180  FF 35 00000B2A R	    push font
 00000186  A1 00000B32 R	    mov eax, DWORD PTR [song2Text]
 0000018B  50			    push eax
 0000018C  E8 00000000 E	    call sfText_setFont
 00000191  83 C4 08		    add esp, 8
				    
				    ; Set string
 00000194  68 00000AAF R	    push offset song2_string
 00000199  A1 00000B32 R	    mov eax, DWORD PTR [song2Text]
 0000019E  50			    push eax
 0000019F  E8 00000000 E	    call sfText_setString
 000001A4  83 C4 08		    add esp, 8
				    
				    ; Set character size
 000001A7  6A 20		    push 32
 000001A9  A1 00000B32 R	    mov eax, DWORD PTR [song2Text]
 000001AE  50			    push eax
 000001AF  E8 00000000 E	    call sfText_setCharacterSize
 000001B4  83 C4 08		    add esp, 8
				    
				    ; Set fill color
 000001B7  FF 35 00000BCE R	    push black_color
 000001BD  A1 00000B32 R	    mov eax, DWORD PTR [song2Text]
 000001C2  50			    push eax
 000001C3  E8 00000000 E	    call sfText_setFillColor
 000001C8  83 C4 08		    add esp, 8
				        
				    ; Set position
 000001CB  83 EC 10		    sub esp, 16
 000001CE  8D 04 24		    lea eax, [esp]

 000001D1  FF 35 00000B32 R	    push DWORD PTR [song2Text]
 000001D7  50			    push eax
 000001D8  E8 00000000 E	    call sfText_getLocalBounds
 000001DD  83 C4 08		    add esp, 8

 000001E0  8B 10		    mov edx, DWORD PTR [eax]
 000001E2  89 15 00000B5A R	    mov DWORD PTR [song2Bounds.left], edx
 000001E8  8B 48 04		    mov ecx, DWORD PTR [eax+4]
 000001EB  89 0D 00000B5E R	    mov DWORD PTR [song2Bounds.top], ecx
 000001F1  8B 50 08		    mov edx, DWORD PTR [eax+8]
 000001F4  89 15 00000B62 R	    mov DWORD PTR [song2Bounds._width], edx
 000001FA  8B 40 0C		    mov eax, DWORD PTR [eax+12]
 000001FD  A3 00000B66 R	    mov DWORD PTR [song2Bounds.height], eax

 00000202  83 C4 10		    add esp, 16
				    
				    ; Adjust position
 00000205  F3/ 0F 10 05		    movss xmm0, DWORD PTR [window_realWidth]
	   00000B8A R
 0000020D  F3/ 0F 5C 05		    subss xmm0, DWORD PTR [song2Bounds._width]
	   00000B62 R
 00000215  F3/ 0F 10 0D		    movss xmm1, DWORD PTR [two]
	   00000C1E R
 0000021D  F3/ 0F 5E C1		    divss xmm0, xmm1
 00000221  F3/ 0F 11 44 24	    movss DWORD PTR [esp-8], xmm0
	   F8
				    
 00000227  F3/ 0F 10 05		    movss xmm0, DWORD PTR [const_260]
	   00000C26 R
 0000022F  F3/ 0F 11 44 24	    movss DWORD PTR [esp-4], xmm0
	   FC

 00000235  8B F4		    mov esi, esp

 00000237  FF 76 FC		    push DWORD PTR [esi-4] ; y (200.0)
 0000023A  FF 76 F8		    push DWORD PTR [esi-8] ; x (centered)
 0000023D  FF 35 00000B32 R	    push DWORD PTR [song2Text]
 00000243  E8 00000000 E	    call sfText_setPosition
 00000248  83 C4 0C		    add esp, 12

 0000024B  C3			    ret
 0000024C			setup_song2_text ENDP

				; Ë®≠ÂÆöSong3ÊñáÂ≠ó
 0000024C			setup_song3_text PROC
				    ; Create font
 0000024C  68 00000080 R	    push offset font_path
 00000251  E8 00000000 E	    call sfFont_createFromFile
 00000256  83 C4 04		    add esp, 4
 00000259  A3 00000B2A R	    mov font, eax
				    
				    ; Create text object
 0000025E  E8 00000000 E	    call sfText_create
 00000263  A3 00000B36 R	    mov DWORD PTR [song3Text], eax
				    
				    ; Set font
 00000268  FF 35 00000B2A R	    push font
 0000026E  A1 00000B36 R	    mov eax, DWORD PTR [song3Text]
 00000273  50			    push eax
 00000274  E8 00000000 E	    call sfText_setFont
 00000279  83 C4 08		    add esp, 8
				    
				    ; Set string
 0000027C  68 00000ABD R	    push offset song3_string
 00000281  A1 00000B36 R	    mov eax, DWORD PTR [song3Text]
 00000286  50			    push eax
 00000287  E8 00000000 E	    call sfText_setString
 0000028C  83 C4 08		    add esp, 8
				    
				    ; Set character size
 0000028F  6A 20		    push 32
 00000291  A1 00000B36 R	    mov eax, DWORD PTR [song3Text]
 00000296  50			    push eax
 00000297  E8 00000000 E	    call sfText_setCharacterSize
 0000029C  83 C4 08		    add esp, 8
				    
				    ; Set fill color
 0000029F  FF 35 00000BCE R	    push black_color
 000002A5  A1 00000B36 R	    mov eax, DWORD PTR [song3Text]
 000002AA  50			    push eax
 000002AB  E8 00000000 E	    call sfText_setFillColor
 000002B0  83 C4 08		    add esp, 8
				       
				    ; Set position
 000002B3  83 EC 10		    sub esp, 16
 000002B6  8D 04 24		    lea eax, [esp]

 000002B9  FF 35 00000B36 R	    push DWORD PTR [song3Text]
 000002BF  50			    push eax
 000002C0  E8 00000000 E	    call sfText_getLocalBounds
 000002C5  83 C4 08		    add esp, 8

 000002C8  8B 10		    mov edx, DWORD PTR [eax]
 000002CA  89 15 00000B6A R	    mov DWORD PTR [song3Bounds.left], edx
 000002D0  8B 48 04		    mov ecx, DWORD PTR [eax+4]
 000002D3  89 0D 00000B6E R	    mov DWORD PTR [song3Bounds.top], ecx
 000002D9  8B 50 08		    mov edx, DWORD PTR [eax+8]
 000002DC  89 15 00000B72 R	    mov DWORD PTR [song3Bounds._width], edx
 000002E2  8B 40 0C		    mov eax, DWORD PTR [eax+12]
 000002E5  A3 00000B76 R	    mov DWORD PTR [song3Bounds.height], eax

 000002EA  83 C4 10		    add esp, 16
				    
				    ; Adjust position
 000002ED  F3/ 0F 10 05		    movss xmm0, DWORD PTR [window_realWidth]
	   00000B8A R
 000002F5  F3/ 0F 5C 05		    subss xmm0, DWORD PTR [song3Bounds._width]
	   00000B72 R
 000002FD  F3/ 0F 10 0D		    movss xmm1, DWORD PTR [two]
	   00000C1E R
 00000305  F3/ 0F 5E C1		    divss xmm0, xmm1
 00000309  F3/ 0F 11 44 24	    movss DWORD PTR [esp-8], xmm0
	   F8
				    
 0000030F  F3/ 0F 10 05		    movss xmm0, DWORD PTR [const_360]
	   00000C2A R
 00000317  F3/ 0F 11 44 24	    movss DWORD PTR [esp-4], xmm0
	   FC

 0000031D  8B F4		    mov esi, esp

 0000031F  FF 76 FC		    push DWORD PTR [esi-4] ; y (200.0)
 00000322  FF 76 F8		    push DWORD PTR [esi-8] ; x (centered)
 00000325  FF 35 00000B36 R	    push DWORD PTR [song3Text]
 0000032B  E8 00000000 E	    call sfText_setPosition
 00000330  83 C4 0C		    add esp, 12

 00000333  C3			    ret
 00000334			setup_song3_text ENDP

				; Ë®≠ÂÆöinstructionÊñáÂ≠ó
 00000334			setup_instruction_text PROC
				    ; Create font
 00000334  68 00000080 R	    push offset font_path
 00000339  E8 00000000 E	    call sfFont_createFromFile
 0000033E  83 C4 04		    add esp, 4
 00000341  A3 00000B2A R	    mov font, eax
				    
				    ; Create text object
 00000346  E8 00000000 E	    call sfText_create
 0000034B  A3 00000B3A R	    mov DWORD PTR [instructionText], eax
				    
				    ; Set font
 00000350  FF 35 00000B2A R	    push font
 00000356  A1 00000B3A R	    mov eax, DWORD PTR [instructionText]
 0000035B  50			    push eax
 0000035C  E8 00000000 E	    call sfText_setFont
 00000361  83 C4 08		    add esp, 8
				    
				    ; Set string
 00000364  68 00000ACE R	    push offset instruction_string
 00000369  A1 00000B3A R	    mov eax, DWORD PTR [instructionText]
 0000036E  50			    push eax
 0000036F  E8 00000000 E	    call sfText_setString
 00000374  83 C4 08		    add esp, 8
				    
				    ; Set character size
 00000377  6A 20		    push 32
 00000379  A1 00000B3A R	    mov eax, DWORD PTR [instructionText]
 0000037E  50			    push eax
 0000037F  E8 00000000 E	    call sfText_setCharacterSize
 00000384  83 C4 08		    add esp, 8
				    
				    ; Set fill color
 00000387  FF 35 00000BCE R	    push black_color
 0000038D  A1 00000B3A R	    mov eax, DWORD PTR [instructionText]
 00000392  50			    push eax
 00000393  E8 00000000 E	    call sfText_setFillColor
 00000398  83 C4 08		    add esp, 8
				    
				    ; Set position
 0000039B  83 EC 10		    sub esp, 16
 0000039E  8D 04 24		    lea eax, [esp]

 000003A1  FF 35 00000B3A R	    push DWORD PTR [instructionText]
 000003A7  50			    push eax
 000003A8  E8 00000000 E	    call sfText_getLocalBounds
 000003AD  83 C4 08		    add esp, 8

 000003B0  8B 10		    mov edx, DWORD PTR [eax]
 000003B2  89 15 00000B7A R	    mov DWORD PTR [instructionBounds.left], edx
 000003B8  8B 48 04		    mov ecx, DWORD PTR [eax+4]
 000003BB  89 0D 00000B7E R	    mov DWORD PTR [instructionBounds.top], ecx
 000003C1  8B 50 08		    mov edx, DWORD PTR [eax+8]
 000003C4  89 15 00000B82 R	    mov DWORD PTR [instructionBounds._width], edx
 000003CA  8B 40 0C		    mov eax, DWORD PTR [eax+12]
 000003CD  A3 00000B86 R	    mov DWORD PTR [instructionBounds.height], eax

 000003D2  83 C4 10		    add esp, 16
				    
				    ; Adjust position
 000003D5  F3/ 0F 10 05		    movss xmm0, DWORD PTR [window_realWidth]
	   00000B8A R
 000003DD  F3/ 0F 5C 05		    subss xmm0, DWORD PTR [instructionBounds._width]
	   00000B82 R
 000003E5  F3/ 0F 10 0D		    movss xmm1, DWORD PTR [two]
	   00000C1E R
 000003ED  F3/ 0F 5E C1		    divss xmm0, xmm1
 000003F1  F3/ 0F 11 44 24	    movss DWORD PTR [esp-8], xmm0
	   F8
				    
 000003F7  F3/ 0F 10 05		    movss xmm0, DWORD PTR [const_550]
	   00000C2E R
 000003FF  F3/ 0F 11 44 24	    movss DWORD PTR [esp-4], xmm0
	   FC

 00000405  8B F4		    mov esi, esp

 00000407  FF 76 FC		    push DWORD PTR [esi-4] ; y (200.0)
 0000040A  FF 76 F8		    push DWORD PTR [esi-8] ; x (centered)
 0000040D  FF 35 00000B3A R	    push DWORD PTR [instructionText]
 00000413  E8 00000000 E	    call sfText_setPosition
 00000418  83 C4 0C		    add esp, 12

 0000041B  C3			    ret
 0000041C			setup_instruction_text ENDP

				; ÂâµÂª∫ÊåâÈàï
 0000041C			create_button PROC
				    
 0000041C  55			    push ebp
 0000041D  8B EC		    mov ebp, esp

				    ; ÂëºÂè´ÂáΩÊï∏ÂâµÂª∫Áü©ÂΩ¢
 0000041F  E8 00000000 E	    call sfRectangleShape_create
 00000424  8B F0		    mov esi, eax  ; ÂÑ≤Â≠òÁü©ÂΩ¢Áâ©‰ª∂

				    ; ÂâµÂª∫‰ΩçÁΩÆÂêëÈáè !Á®ãÂºè‰ΩçÁΩÆÂ≠òÂú®ebp+4
 00000426  FF 75 0C		    push dword ptr [ebp+12] ; y Â∫ßÊ®ô
 00000429  FF 75 08		    push dword ptr [ebp+8]  ; x Â∫ßÊ®ô
 0000042C  56			    push esi
 0000042D  E8 00000000 E	    call sfRectangleShape_setPosition
 00000432  83 C4 0C		    add esp, 12

				    ; Ë®≠ÂÆöÂ§ßÂ∞è
 00000435  FF 75 14		    push dword ptr [ebp+20] ; È´òÂ∫¶
 00000438  FF 75 10		    push dword ptr [ebp+16] ; ÂØ¨Â∫¶
 0000043B  56			    push esi
 0000043C  E8 00000000 E	    call sfRectangleShape_setSize
 00000441  83 C4 0C		    add esp, 12

				    ; Ë®≠ÂÆöÂ°´ÂÖÖÈ°èËâ≤
 00000444  FF 35 00000BBE R	    push gray_color
 0000044A  56			    push esi
 0000044B  E8 00000000 E	    call sfRectangleShape_setFillColor
 00000450  83 C4 08		    add esp, 8

				    ; Ë®≠ÂÆöÈÇäÊ°ÜÈ°èËâ≤
 00000453  FF 35 00000BC2 R	    push dark_gray_color
 00000459  56			    push esi
 0000045A  E8 00000000 E	    call sfRectangleShape_setOutlineColor
 0000045F  83 C4 08		    add esp, 8

				    ; Ë®≠ÂÆöÈÇäÊ°ÜÂéöÂ∫¶  
 00000462  83 EC 04		    sub esp, 4
 00000465  F3/ 0F 10 05		    movss xmm0, dword ptr [outline_thickness]
	   00000C1A R
 0000046D  F3/ 0F 11 04 24	    movss dword ptr [esp], xmm0
 00000472  56			    push esi
 00000473  E8 00000000 E	    call sfRectangleShape_setOutlineThickness
 00000478  83 C4 08		    add esp, 8

				    ; ËøîÂõûÊåâÈàïÁâ©‰ª∂
 0000047B  8B C6		    mov eax, esi

 0000047D  5D			    pop ebp
 0000047E  C3			    ret
 0000047F			create_button ENDP

				; ÂàùÂßãÂåñÊåâÈàï
 0000047F			init_buttons PROC
				    ; ÂàùÂßãÂåñÊåâÈàï1
 0000047F  51			    push ecx
 00000480  F3/ 0F 10 05		    movss xmm0, dword ptr [button_height]
	   00000C12 R
 00000488  F3/ 0F 11 04 24	    movss dword ptr [esp], xmm0

 0000048D  51			    push ecx
 0000048E  F3/ 0F 10 05		    movss xmm0, dword ptr [button_width]
	   00000C0A R
 00000496  F3/ 0F 11 04 24	    movss dword ptr [esp], xmm0

 0000049B  51			    push ecx
 0000049C  F3/ 0F 10 05		    movss xmm0, dword ptr [button1_y]
	   00000BF6 R
 000004A4  F3/ 0F 11 04 24	    movss dword ptr [esp], xmm0

 000004A9  51			    push ecx
 000004AA  F3/ 0F 10 05		    movss xmm0, dword ptr [button_x]
	   00000BF2 R
 000004B2  F3/ 0F 11 04 24	    movss dword ptr [esp], xmm0

 000004B7  E8 FFFFFF60		    call create_button
 000004BC  83 C4 10		    add esp, 16
 000004BF  A3 00000BD2 R	    mov dword ptr [button1_shape], eax
 000004C4  C7 05 00000BD6 R	    mov dword ptr [button1_shape.state], BUTTON_STATE_NORMAL
	   00000000

				    ; ÂàùÂßãÂåñÊåâÈàï2
 000004CE  51			    push ecx
 000004CF  F3/ 0F 10 05		    movss xmm0, dword ptr [button_height]
	   00000C12 R
 000004D7  F3/ 0F 11 04 24	    movss dword ptr [esp], xmm0

 000004DC  51			    push ecx
 000004DD  F3/ 0F 10 05		    movss xmm0, dword ptr [button_width]
	   00000C0A R
 000004E5  F3/ 0F 11 04 24	    movss dword ptr [esp], xmm0

 000004EA  51			    push ecx
 000004EB  F3/ 0F 10 05		    movss xmm0, dword ptr [button2_y]
	   00000BFA R
 000004F3  F3/ 0F 11 04 24	    movss dword ptr [esp], xmm0

 000004F8  51			    push ecx
 000004F9  F3/ 0F 10 05		    movss xmm0, dword ptr [button_x]
	   00000BF2 R
 00000501  F3/ 0F 11 04 24	    movss dword ptr [esp], xmm0

 00000506  E8 FFFFFF11		    call create_button
 0000050B  83 C4 10		    add esp, 16
 0000050E  A3 00000BDA R	    mov dword ptr [button2_shape], eax
 00000513  C7 05 00000BDE R	    mov dword ptr [button2_shape.state], BUTTON_STATE_NORMAL
	   00000000

				    ; ÂàùÂßãÂåñÊåâÈàï3
 0000051D  51			    push ecx
 0000051E  F3/ 0F 10 05		    movss xmm0, dword ptr [button_height]
	   00000C12 R
 00000526  F3/ 0F 11 04 24	    movss dword ptr [esp], xmm0

 0000052B  51			    push ecx
 0000052C  F3/ 0F 10 05		    movss xmm0, dword ptr [button_width]
	   00000C0A R
 00000534  F3/ 0F 11 04 24	    movss dword ptr [esp], xmm0

 00000539  51			    push ecx
 0000053A  F3/ 0F 10 05		    movss xmm0, dword ptr [button3_y]
	   00000BFE R
 00000542  F3/ 0F 11 04 24	    movss dword ptr [esp], xmm0

 00000547  51			    push ecx
 00000548  F3/ 0F 10 05		    movss xmm0, dword ptr [button_x]
	   00000BF2 R
 00000550  F3/ 0F 11 04 24	    movss dword ptr [esp], xmm0

 00000555  E8 FFFFFEC2		    call create_button
 0000055A  83 C4 10		    add esp, 16
 0000055D  A3 00000BE2 R	    mov dword ptr [button3_shape], eax
 00000562  C7 05 00000BE6 R	    mov dword ptr [button3_shape.state], BUTTON_STATE_NORMAL
	   00000000

				    ; ÂàùÂßãÂåñ‰ªãÁ¥πÊ°Ü
 0000056C  51			    push ecx
 0000056D  F3/ 0F 10 05		    movss xmm0, dword ptr [instruction_height]
	   00000C16 R
 00000575  F3/ 0F 11 04 24	    movss dword ptr [esp], xmm0

 0000057A  51			    push ecx
 0000057B  F3/ 0F 10 05		    movss xmm0, dword ptr [instruction_width]
	   00000C0E R
 00000583  F3/ 0F 11 04 24	    movss dword ptr [esp], xmm0

 00000588  51			    push ecx
 00000589  F3/ 0F 10 05		    movss xmm0, dword ptr [instruction_y]
	   00000C06 R
 00000591  F3/ 0F 11 04 24	    movss dword ptr [esp], xmm0

 00000596  51			    push ecx
 00000597  F3/ 0F 10 05		    movss xmm0, dword ptr [instruction_x]
	   00000C02 R
 0000059F  F3/ 0F 11 04 24	    movss dword ptr [esp], xmm0

 000005A4  E8 FFFFFE73		    call create_button
 000005A9  83 C4 10		    add esp, 16
 000005AC  A3 00000BEA R	    mov dword ptr [instruction_shape], eax
 000005B1  C7 05 00000BEE R	    mov dword ptr [instruction_shape.state], BUTTON_STATE_NORMAL
	   00000000

				    ; ‰øÆÊîπÂ∫ïÈÉ®Èï∑ÊñπÂΩ¢È°èËâ≤ÂíåÈÇäÊ°Ü
 000005BB  FF 35 00000BCA R	    push beige_color  ; ÈµùÈªÉËâ≤
 000005C1  FF 35 00000BEA R	    push dword ptr [instruction_shape]
 000005C7  E8 00000000 E	    call sfRectangleShape_setFillColor
 000005CC  83 C4 08		    add esp, 8

 000005CF  FF 35 00000BCE R	    push black_color  ; ÈªëËâ≤ÈÇäÊ°Ü
 000005D5  FF 35 00000BEA R	    push dword ptr [instruction_shape]
 000005DB  E8 00000000 E	    call sfRectangleShape_setOutlineColor
 000005E0  83 C4 08		    add esp, 8

 000005E3  C3			    ret
 000005E4			init_buttons ENDP

				; ÈáãÊîæË≥áÊ∫ê
 000005E4			cleanup PROC
				    ; push window
				    ; call sfRenderWindow_destroy

 000005E4  FF 35 00000B26 R	    push bgMusic
 000005EA  E8 00000000 E	    call sfMusic_destroy
 000005EF  83 C4 04		    add esp, 4

 000005F2  FF 35 00000B22 R	    push bgSprite
 000005F8  E8 00000000 E	    call sfSprite_destroy
 000005FD  83 C4 04		    add esp, 4

 00000600  FF 35 00000B1E R	    push bgTexture
 00000606  E8 00000000 E	    call sfTexture_destroy
 0000060B  83 C4 04		    add esp, 4

 0000060E  FF 35 00000B2E R	    push song1Text
 00000614  E8 00000000 E	    call sfText_destroy
 00000619  83 C4 04		    add esp, 4

 0000061C  FF 35 00000B32 R	    push song2Text
 00000622  E8 00000000 E	    call sfText_destroy
 00000627  83 C4 04		    add esp, 4

 0000062A  FF 35 00000B36 R	    push song3Text
 00000630  E8 00000000 E	    call sfText_destroy
 00000635  83 C4 04		    add esp, 4

 00000638  FF 35 00000B3A R	    push instructionText
 0000063E  E8 00000000 E	    call sfText_destroy
 00000643  83 C4 04		    add esp, 4

 00000646  FF 35 00000B2A R	    push font
 0000064C  E8 00000000 E	    call sfFont_destroy
 00000651  83 C4 04		    add esp, 4 
				    
 00000654  FF 35 00000BD2 R	    push dword ptr [button1_shape]
 0000065A  E8 00000000 E	    call sfRectangleShape_destroy
 0000065F  83 C4 04		    add esp, 4
				    
 00000662  FF 35 00000BDA R	    push dword ptr [button2_shape]
 00000668  E8 00000000 E	    call sfRectangleShape_destroy
 0000066D  83 C4 04		    add esp, 4
				    
 00000670  FF 35 00000BE2 R	    push dword ptr [button3_shape]
 00000676  E8 00000000 E	    call sfRectangleShape_destroy
 0000067B  83 C4 04		    add esp, 4

 0000067E  FF 35 00000BEA R	    push dword ptr [instruction_shape]
 00000684  E8 00000000 E	    call sfRectangleShape_destroy
 00000689  83 C4 04		    add esp, 4
				   
 0000068C  C3			    ret
 0000068D			cleanup ENDP

 0000068D			select_music_page PROC window:DWORD

				   ; ËºâÂÖ•ËÉåÊôØ
 00000690  E8 FFFFF96B		    call @load_background
 00000695  85 C0		    test eax, eax
 00000697  0F 84 00000371	    jz @exit_program
				    
 0000069D  C7 05 00000B26 R	    mov bgMusic, 0
	   00000000

				    ; Ë®≠ÂÆöÊåâÈàï
 000006A7  E8 FFFFFDD3		    call init_buttons

				    ; Ë®≠ÂÆöÊèêÁ§∫ÊñáÂ≠ó
 000006AC  E8 FFFFF9CB		    call setup_song1_text
 000006B1  E8 FFFFFAAE		    call setup_song2_text
 000006B6  E8 FFFFFB91		    call setup_song3_text
 000006BB  E8 FFFFFC74		    call setup_instruction_text

 000006C0			@main_loop:
				    
 000006C0  8B 45 08		    mov eax, DWORD PTR [window]
 000006C3  50			    push eax
 000006C4  E8 00000000 E	    call sfRenderWindow_isOpen
 000006C9  83 C4 04		    add esp, 4
 000006CC  85 C0		    test eax, eax
 000006CE  0F 84 0000033A	    je @exit_program

 000006D4			    @event_loop:
				        ; ‰∫ã‰ª∂ËôïÁêÜ
 000006D4  8D 35 00000B8E R	        lea esi, event
 000006DA  56			        push esi
 000006DB  8B 45 08		        mov eax, window
 000006DE  50			        push eax
 000006DF  E8 00000000 E	        call sfRenderWindow_pollEvent
 000006E4  83 C4 08		        add esp, 8
 000006E7  85 C0		        test eax, eax
 000006E9  0F 84 00000243	        je @render_window
				    
				        ; Ê™¢Êü•ÈóúÈñâ‰∫ã‰ª∂
 000006EF  83 3E 00		        cmp dword ptr [esi].sfEvent._type, sfEvtClosed
 000006F2  0F 84 0000030C	        je @end

				        ; Ê™¢Êü•ÊªëÈº†ÈªûÊìä
 000006F8  83 3E 09		        cmp dword ptr [esi].sfEvent._type, sfEvtMouseButtonPressed
 000006FB  0F 84 00000231	        je @render_window
				    
				        ; Ê™¢Êü•ÈçµÁõ§‰∫ã‰ª∂
 00000701  83 3E 05		        cmp dword ptr [esi].sfEvent._type, sfEvtKeyPressed
 00000704  74 02		        je @check_key_press

 00000706  EB CC		        jmp @event_loop

 00000708			        @check_key_press:
 00000708  83 7E 04 00		            cmp dword ptr [esi+4], sfKeyA
 0000070C  74 20		            je @key_1_pressed

 0000070E  83 7E 04 12		            cmp dword ptr [esi+4], sfKeyS
 00000712  0F 84 00000082	            je @key_2_pressed

 00000718  83 7E 04 03		            cmp dword ptr [esi+4], sfKeyD
 0000071C  0F 84 000000E4	            je @key_3_pressed

 00000722  83 7E 04 3A		            cmp dword ptr [esi+4], sfKeyEnter
 00000726  0F 84 00000146	            je @check_enter     
				            
 0000072C  EB A6		            jmp @event_loop

 0000072E			@key_1_pressed:
 0000072E  C7 05 00000B3E R	    mov dword ptr [KeyA_state], 1 ; Ë®≠ÂÆöÁãÄÊÖãÂ∑≤Êåâ‰∏ã 
	   00000001
 00000738  C7 05 00000B42 R	    mov dword ptr [KeyS_state], 0
	   00000000
 00000742  C7 05 00000B46 R	    mov dword ptr [KeyD_state], 0
	   00000000

 0000074C  68 00000000 R	    push offset music1_path
 00000751  E8 FFFFF8E0		    call play_music
 00000756  83 C4 04		    add esp, 4

 00000759  FF 35 00000BC6 R	    push light_gray_color
 0000075F  FF 35 00000BD2 R	    push DWORD PTR [button1_shape]
 00000765  E8 00000000 E	    call sfRectangleShape_setFillColor
 0000076A  83 C4 08		    add esp, 8

 0000076D  FF 35 00000BBE R	    push gray_color
 00000773  FF 35 00000BDA R	    push DWORD PTR [button2_shape]
 00000779  E8 00000000 E	    call sfRectangleShape_setFillColor
 0000077E  83 C4 08		    add esp, 8

 00000781  FF 35 00000BBE R	    push gray_color
 00000787  FF 35 00000BE2 R	    push DWORD PTR [button3_shape]
 0000078D  E8 00000000 E	    call sfRectangleShape_setFillColor
 00000792  83 C4 08		    add esp, 8
 00000795  E9 FFFFFF3A		    jmp @event_loop

 0000079A			@key_2_pressed:
 0000079A  C7 05 00000B42 R	    mov dword ptr [KeyS_state], 1 ; Ë®≠ÂÆöÁãÄÊÖãÂ∑≤Êåâ‰∏ã
	   00000001
 000007A4  C7 05 00000B3E R	    mov dword ptr [KeyA_state], 0
	   00000000
 000007AE  C7 05 00000B46 R	    mov dword ptr [KeyD_state], 0
	   00000000

 000007B8  68 00000020 R	    push offset music2_path
 000007BD  E8 FFFFF874		    call play_music
 000007C2  83 C4 04		    add esp, 4

 000007C5  FF 35 00000BC6 R	    push light_gray_color
 000007CB  FF 35 00000BDA R	    push DWORD PTR [button2_shape]
 000007D1  E8 00000000 E	    call sfRectangleShape_setFillColor
 000007D6  83 C4 08		    add esp, 8

 000007D9  FF 35 00000BBE R	    push gray_color
 000007DF  FF 35 00000BD2 R	    push DWORD PTR [button1_shape]
 000007E5  E8 00000000 E	    call sfRectangleShape_setFillColor
 000007EA  83 C4 08		    add esp, 8

 000007ED  FF 35 00000BBE R	    push gray_color
 000007F3  FF 35 00000BE2 R	    push DWORD PTR [button3_shape]
 000007F9  E8 00000000 E	    call sfRectangleShape_setFillColor
 000007FE  83 C4 08		    add esp, 8
 00000801  E9 FFFFFECE		    jmp @event_loop

 00000806			@key_3_pressed:
 00000806  C7 05 00000B46 R	    mov dword ptr [KeyD_state], 1 ; Ë®≠ÂÆöÁãÄÊÖãÂ∑≤Êåâ‰∏ã
	   00000001
 00000810  C7 05 00000B3E R	    mov dword ptr [KeyA_state], 0
	   00000000
 0000081A  C7 05 00000B42 R	    mov dword ptr [KeyS_state], 0
	   00000000

 00000824  68 0000003F R	    push offset music3_path
 00000829  E8 FFFFF808		    call play_music
 0000082E  83 C4 04		    add esp, 4

 00000831  FF 35 00000BC6 R	    push light_gray_color
 00000837  FF 35 00000BE2 R	    push DWORD PTR [button3_shape]
 0000083D  E8 00000000 E	    call sfRectangleShape_setFillColor
 00000842  83 C4 08		    add esp, 8

 00000845  FF 35 00000BBE R	    push gray_color
 0000084B  FF 35 00000BD2 R	    push DWORD PTR [button1_shape]
 00000851  E8 00000000 E	    call sfRectangleShape_setFillColor
 00000856  83 C4 08		    add esp, 8

 00000859  FF 35 00000BBE R	    push gray_color
 0000085F  FF 35 00000BDA R	    push DWORD PTR [button2_shape]
 00000865  E8 00000000 E	    call sfRectangleShape_setFillColor
 0000086A  83 C4 08		    add esp, 8
 0000086D  E9 FFFFFE62		    jmp @event_loop

 00000872			@check_enter:
 00000872  83 3D 00000B3E R	    cmp dword ptr [KeyA_state], 1 
	   01
 00000879  74 18		    je @keyA_enter

 0000087B  83 3D 00000B42 R	    cmp dword ptr [KeyS_state], 1 
	   01
 00000882  74 44		    je @keyS_enter

 00000884  83 3D 00000B46 R	    cmp dword ptr [KeyD_state], 1 
	   01
 0000088B  74 70		    je @keyD_enter

 0000088D  0F 85 FFFFFE41	    jne @event_loop              

 00000893			@keyA_enter:
 00000893  C7 05 00000000 E	    mov DWORD PTR [currentPage], 2
	   00000002
 0000089D  E8 FFFFFD42		    call cleanup
 000008A2  68 000000B0 R	    push offset music1Info
 000008A7  68 00000230 R	    push offset music1_noteTimings
 000008AC  68 0000022C R	    push offset music1_totalNotes
 000008B1  68 000000C4 R	    push offset music1_notes
 000008B6  68 00000000 R	    push offset music1_path
 000008BB  FF 75 08		    push dword ptr [window]
 000008BE  E8 00000000 E	    call main_game_page
 000008C3  E9 00000146		    jmp @exit_program

 000008C8			@keyS_enter:
 000008C8  C7 05 00000000 E	    mov DWORD PTR [currentPage], 2
	   00000002
 000008D2  E8 FFFFFD0D		    call cleanup
 000008D7  68 00000398 R	    push offset music2Info
 000008DC  68 00000594 R	    push offset music2_noteTimings
 000008E1  68 00000590 R	    push offset music2_totalNotes
 000008E6  68 000003AC R	    push offset music2_notes
 000008EB  68 00000020 R	    push offset music2_path
 000008F0  FF 75 08		    push dword ptr [window]
 000008F3  E8 00000000 E	    call main_game_page
 000008F8  E9 00000111		    jmp @exit_program

 000008FD			@keyD_enter:
 000008FD  C7 05 00000000 E	    mov DWORD PTR [currentPage], 2
	   00000002
 00000907  E8 FFFFFCD8		    call cleanup
 0000090C  68 00000778 R	    push offset music3Info
 00000911  68 00000918 R	    push offset music3_noteTimings
 00000916  68 00000914 R	    push offset music3_totalNotes
 0000091B  68 0000078C R	    push offset music3_notes
 00000920  68 0000003F R	    push offset music3_path
 00000925  FF 75 08		    push dword ptr [window]
 00000928  E8 00000000 E	    call main_game_page
 0000092D  E9 000000DC		    jmp @exit_program
				    
 00000932			@render_window: 
				    ; Ê∏ÖÈô§Ë¶ñÁ™ó
 00000932  FF 35 00000BCE R	    push black_color
 00000938  FF 75 08		    push window
 0000093B  E8 00000000 E	    call sfRenderWindow_clear
 00000940  83 C4 08		    add esp, 8
				    
				    ; Áπ™Ë£ΩËÉåÊôØ
 00000943  6A 00		    push 0
 00000945  A1 00000B22 R	    mov eax, DWORD PTR [bgSprite]
 0000094A  50			    push eax
 0000094B  8B 4D 08		    mov ecx, DWORD PTR [window]
 0000094E  51			    push ecx
 0000094F  E8 00000000 E	    call sfRenderWindow_drawSprite
 00000954  83 C4 0C		    add esp, 12

				    ; Áπ™Ë£ΩÊåâÈàï
 00000957  6A 00		    push 0
 00000959  A1 00000BD2 R	    mov eax, DWORD PTR [button1_shape]
 0000095E  50			    push eax
 0000095F  8B 4D 08		    mov ecx, DWORD PTR [window]
 00000962  51			    push ecx
 00000963  E8 00000000 E	    call sfRenderWindow_drawRectangleShape
 00000968  83 C4 0C		    add esp, 12

 0000096B  6A 00		    push 0
 0000096D  A1 00000BDA R	    mov eax, DWORD PTR [button2_shape]
 00000972  50			    push eax
 00000973  8B 4D 08		    mov ecx, DWORD PTR [window]
 00000976  51			    push ecx
 00000977  E8 00000000 E	    call sfRenderWindow_drawRectangleShape
 0000097C  83 C4 0C		    add esp, 12
				    
 0000097F  6A 00		    push 0
 00000981  A1 00000BE2 R	    mov eax, DWORD PTR [button3_shape]
 00000986  50			    push eax
 00000987  8B 4D 08		    mov ecx, DWORD PTR [window]
 0000098A  51			    push ecx
 0000098B  E8 00000000 E	    call sfRenderWindow_drawRectangleShape
 00000990  83 C4 0C		    add esp, 12

 00000993  6A 00		    push 0
 00000995  A1 00000BEA R	    mov eax, DWORD PTR [instruction_shape]
 0000099A  50			    push eax
 0000099B  8B 4D 08		    mov ecx, DWORD PTR [window]
 0000099E  51			    push ecx
 0000099F  E8 00000000 E	    call sfRenderWindow_drawRectangleShape
 000009A4  83 C4 0C		    add esp, 12

				    ; Áπ™Ë£Ωsong1
 000009A7  6A 00		    push 0
 000009A9  FF 35 00000B2E R	    push DWORD PTR [song1Text]
 000009AF  FF 75 08		    push DWORD PTR [window]
 000009B2  E8 00000000 E	    call sfRenderWindow_drawText
 000009B7  83 C4 0C		    add esp, 12

				    ; Áπ™Ë£Ωsong2
 000009BA  6A 00		    push 0
 000009BC  FF 35 00000B32 R	    push DWORD PTR [song2Text]
 000009C2  FF 75 08		    push DWORD PTR [window]
 000009C5  E8 00000000 E	    call sfRenderWindow_drawText
 000009CA  83 C4 0C		    add esp, 12

				    ; Áπ™Ë£Ωsong3
 000009CD  6A 00		    push 0
 000009CF  FF 35 00000B36 R	    push DWORD PTR [song3Text]
 000009D5  FF 75 08		    push DWORD PTR [window]
 000009D8  E8 00000000 E	    call sfRenderWindow_drawText
 000009DD  83 C4 0C		    add esp, 12

				    ; Áπ™Ë£Ωinstruction
 000009E0  6A 00		    push 0
 000009E2  FF 35 00000B3A R	    push DWORD PTR [instructionText]
 000009E8  FF 75 08		    push DWORD PTR [window]
 000009EB  E8 00000000 E	    call sfRenderWindow_drawText
 000009F0  83 C4 0C		    add esp, 12

				    ; È°ØÁ§∫Ë¶ñÁ™ó
 000009F3  8B 45 08		    mov eax, DWORD PTR [window]
 000009F6  50			    push eax
 000009F7  E8 00000000 E	    call sfRenderWindow_display
 000009FC  83 C4 04		    add esp, 4

 000009FF  E9 FFFFFCBC		    jmp @main_loop

 00000A04			@end:
 00000A04  C7 05 00000000 E	    mov DWORD PTR [currentPage], -1
	   FFFFFFFF

 00000A0E			@exit_program:
 00000A0E  33 C0		    xor eax, eax
				    ret

 00000A12			select_music_page ENDP

				END select_music_page
Microsoft (R) Macro Assembler Version 14.41.34120.0	    12/29/24 00:29:26
select_music_page.asm					     Symbols 2 - 1




Structures and Unions:

                N a m e                  Size
                                         Offset      Type

Button . . . . . . . . . . . . .	 00000008
  shape  . . . . . . . . . . . .	 00000000	 DWord
  state  . . . . . . . . . . . .	 00000004	 DWord
Drum . . . . . . . . . . . . . .	 0000000C
  sprite . . . . . . . . . . . .	 00000000	 DWord
  _type  . . . . . . . . . . . .	 00000004	 DWord
  targetTime . . . . . . . . . .	 00000008	 DWord
GameStats  . . . . . . . . . . .	 00000018
  great_count  . . . . . . . . .	 00000000	 DWord
  good_count . . . . . . . . . .	 00000004	 DWord
  miss_count . . . . . . . . . .	 00000008	 DWord
  current_combo  . . . . . . . .	 0000000C	 DWord
  max_combo  . . . . . . . . . .	 00000010	 DWord
  total_score  . . . . . . . . .	 00000014	 DWord
MusicInfo  . . . . . . . . . . .	 00000014
  bpm  . . . . . . . . . . . . .	 00000000	 DWord
  _offset  . . . . . . . . . . .	 00000004	 DWord
  spawnTime  . . . . . . . . . .	 00000008	 DWord
  currentBar . . . . . . . . . .	 0000000C	 DWord
  notesInBar . . . . . . . . . .	 00000010	 DWord
key  . . . . . . . . . . . . . .	 00000014
  code . . . . . . . . . . . . .	 00000000	 DWord
  alt  . . . . . . . . . . . . .	 00000004	 DWord
  control  . . . . . . . . . . .	 00000008	 DWord
  shift  . . . . . . . . . . . .	 0000000C	 DWord
  system . . . . . . . . . . . .	 00000010	 DWord
mouseButton  . . . . . . . . . .	 0000000C
  button . . . . . . . . . . . .	 00000000	 DWord
  x  . . . . . . . . . . . . . .	 00000004	 DWord
  y  . . . . . . . . . . . . . .	 00000008	 DWord
sfColor  . . . . . . . . . . . .	 00000004
  r  . . . . . . . . . . . . . .	 00000000	 Byte
  g  . . . . . . . . . . . . . .	 00000001	 Byte
  b  . . . . . . . . . . . . . .	 00000002	 Byte
  a  . . . . . . . . . . . . . .	 00000003	 Byte
sfEvent  . . . . . . . . . . . .	 00000030
  _type  . . . . . . . . . . . .	 00000000	 DWord
  _size  . . . . . . . . . . . .	 00000004	 DWord
  mouse  . . . . . . . . . . . .	 00000008	 
  _key . . . . . . . . . . . . .	 00000014	 
  mouseMove  . . . . . . . . . .	 00000028	 QWord
sfFloatRect  . . . . . . . . . .	 00000010
  left . . . . . . . . . . . . .	 00000000	 DWord
  top  . . . . . . . . . . . . .	 00000004	 DWord
  _width . . . . . . . . . . . .	 00000008	 DWord
  height . . . . . . . . . . . .	 0000000C	 DWord
sfVector2f . . . . . . . . . . .	 00000008
  x  . . . . . . . . . . . . . .	 00000000	 DWord
  y  . . . . . . . . . . . . . .	 00000004	 DWord
sfVector2i . . . . . . . . . . .	 00000008
  x  . . . . . . . . . . . . . .	 00000000	 DWord
  y  . . . . . . . . . . . . . .	 00000004	 DWord
sfVideoMode  . . . . . . . . . .	 0000000C
  _width . . . . . . . . . . . .	 00000000	 DWord
  height . . . . . . . . . . . .	 00000004	 DWord
  bpp  . . . . . . . . . . . . .	 00000008	 DWord


Segments and Groups:

                N a m e                 Size     Length   Align   Combine Class

FLAT . . . . . . . . . . . . . .	GROUP
_DATA  . . . . . . . . . . . . .	32 Bit	 00000C32 Para	  Public  'DATA'	
_TEXT  . . . . . . . . . . . . .	32 Bit	 00000A12 Para	  Public  'CODE'	


Procedures, parameters, and locals:

                N a m e                 Type     Value    Attr

@load_background . . . . . . . .	P Near	 00000000 _TEXT	Length= 00000036 Public C
cleanup  . . . . . . . . . . . .	P Near	 000005E4 _TEXT	Length= 000000A9 Public C
create_button  . . . . . . . . .	P Near	 0000041C _TEXT	Length= 00000063 Public C
init_buttons . . . . . . . . . .	P Near	 0000047F _TEXT	Length= 00000165 Public C
play_music . . . . . . . . . . .	P Near	 00000036 _TEXT	Length= 00000046 Public C
  @stop_music  . . . . . . . . .	L Near	 00000053 _TEXT	
  @create_music  . . . . . . . .	L Near	 00000061 _TEXT	
select_music_page  . . . . . . .	P Near	 0000068D _TEXT	Length= 00000385 Public C
  window . . . . . . . . . . . .	DWord	 bp + 00000008
  @main_loop . . . . . . . . . .	L Near	 000006C0 _TEXT	
  @event_loop  . . . . . . . . .	L Near	 000006D4 _TEXT	
  @check_key_press . . . . . . .	L Near	 00000708 _TEXT	
  @key_1_pressed . . . . . . . .	L Near	 0000072E _TEXT	
  @key_2_pressed . . . . . . . .	L Near	 0000079A _TEXT	
  @key_3_pressed . . . . . . . .	L Near	 00000806 _TEXT	
  @check_enter . . . . . . . . .	L Near	 00000872 _TEXT	
  @keyA_enter  . . . . . . . . .	L Near	 00000893 _TEXT	
  @keyS_enter  . . . . . . . . .	L Near	 000008C8 _TEXT	
  @keyD_enter  . . . . . . . . .	L Near	 000008FD _TEXT	
  @render_window . . . . . . . .	L Near	 00000932 _TEXT	
  @end . . . . . . . . . . . . .	L Near	 00000A04 _TEXT	
  @exit_program  . . . . . . . .	L Near	 00000A0E _TEXT	
setup_instruction_text . . . . .	P Near	 00000334 _TEXT	Length= 000000E8 Public C
setup_song1_text . . . . . . . .	P Near	 0000007C _TEXT	Length= 000000E8 Public C
setup_song2_text . . . . . . . .	P Near	 00000164 _TEXT	Length= 000000E8 Public C
setup_song3_text . . . . . . . .	P Near	 0000024C _TEXT	Length= 000000E8 Public C


Symbols:

                N a m e                 Type     Value    Attr

@CodeSize  . . . . . . . . . . .	Number	 00000000h   
@DataSize  . . . . . . . . . . .	Number	 00000000h   
@Interface . . . . . . . . . . .	Number	 00000001h   
@Model . . . . . . . . . . . . .	Number	 00000007h   
@code  . . . . . . . . . . . . .	Text   	 _TEXT
@data  . . . . . . . . . . . . .	Text   	 FLAT
@fardata?  . . . . . . . . . . .	Text   	 FLAT
@fardata . . . . . . . . . . . .	Text   	 FLAT
@stack . . . . . . . . . . . . .	Text   	 FLAT
BUTTON_STATE_NORMAL  . . . . . .	Number	 00000000h   
BUTTON_STATE_PRESSED . . . . . .	Number	 00000001h   
KeyA_state . . . . . . . . . . .	DWord	 00000B3E _DATA	
KeyD_state . . . . . . . . . . .	DWord	 00000B46 _DATA	
KeyS_state . . . . . . . . . . .	DWord	 00000B42 _DATA	
beige_color  . . . . . . . . . .	sfColor	 00000BCA _DATA	
bgMusic  . . . . . . . . . . . .	DWord	 00000B26 _DATA	
bgSprite . . . . . . . . . . . .	DWord	 00000B22 _DATA	
bgTexture  . . . . . . . . . . .	DWord	 00000B1E _DATA	
bg_path  . . . . . . . . . . . .	Byte	 00000061 _DATA	
black_color  . . . . . . . . . .	sfColor	 00000BCE _DATA	
button1_shape  . . . . . . . . .	Button	 00000BD2 _DATA	
button1_y  . . . . . . . . . . .	DWord	 00000BF6 _DATA	
button2_shape  . . . . . . . . .	Button	 00000BDA _DATA	
button2_y  . . . . . . . . . . .	DWord	 00000BFA _DATA	
button3_shape  . . . . . . . . .	Button	 00000BE2 _DATA	
button3_y  . . . . . . . . . . .	DWord	 00000BFE _DATA	
button_height  . . . . . . . . .	DWord	 00000C12 _DATA	
button_width . . . . . . . . . .	DWord	 00000C0A _DATA	
button_x . . . . . . . . . . . .	DWord	 00000BF2 _DATA	
const_160  . . . . . . . . . . .	DWord	 00000C22 _DATA	
const_260  . . . . . . . . . . .	DWord	 00000C26 _DATA	
const_360  . . . . . . . . . . .	DWord	 00000C2A _DATA	
const_550  . . . . . . . . . . .	DWord	 00000C2E _DATA	
currentPage  . . . . . . . . . .	DWord	 00000000 FLAT	External C
dark_gray_color  . . . . . . . .	sfColor	 00000BC2 _DATA	
event  . . . . . . . . . . . . .	sfEvent	 00000B8E _DATA	
fclose . . . . . . . . . . . . .	L Near	 00000000 FLAT	External C
fgets  . . . . . . . . . . . . .	L Near	 00000000 FLAT	External C
font_path  . . . . . . . . . . .	Byte	 00000080 _DATA	
font . . . . . . . . . . . . . .	DWord	 00000B2A _DATA	
fopen  . . . . . . . . . . . . .	L Near	 00000000 FLAT	External C
gray_color . . . . . . . . . . .	sfColor	 00000BBE _DATA	
instructionBounds  . . . . . . .	sfFloatRect  00000B7A _DATA	
instructionText  . . . . . . . .	DWord	 00000B3A _DATA	
instruction_height . . . . . . .	DWord	 00000C16 _DATA	
instruction_shape  . . . . . . .	Button	 00000BEA _DATA	
instruction_string . . . . . . .	Byte	 00000ACE _DATA	
instruction_width  . . . . . . .	DWord	 00000C0E _DATA	
instruction_x  . . . . . . . . .	DWord	 00000C02 _DATA	
instruction_y  . . . . . . . . .	DWord	 00000C06 _DATA	
light_gray_color . . . . . . . .	sfColor	 00000BC6 _DATA	
main_game_page . . . . . . . . .	L Near	 00000000 FLAT	External C
malloc . . . . . . . . . . . . .	L Near	 00000000 FLAT	External C
music1Info . . . . . . . . . . .	MusicInfo  000000B0 _DATA	
music1_noteTimings . . . . . . .	DWord	 00000230 _DATA	
music1_notes . . . . . . . . . .	DWord	 000000C4 _DATA	
music1_path  . . . . . . . . . .	Byte	 00000000 _DATA	
music1_totalNotes  . . . . . . .	DWord	 0000022C _DATA	
music2Info . . . . . . . . . . .	MusicInfo  00000398 _DATA	
music2_noteTimings . . . . . . .	DWord	 00000594 _DATA	
music2_notes . . . . . . . . . .	DWord	 000003AC _DATA	
music2_path  . . . . . . . . . .	Byte	 00000020 _DATA	
music2_totalNotes  . . . . . . .	DWord	 00000590 _DATA	
music3Info . . . . . . . . . . .	MusicInfo  00000778 _DATA	
music3_noteTimings . . . . . . .	DWord	 00000918 _DATA	
music3_notes . . . . . . . . . .	DWord	 0000078C _DATA	
music3_path  . . . . . . . . . .	Byte	 0000003F _DATA	
music3_totalNotes  . . . . . . .	DWord	 00000914 _DATA	
outline_thickness  . . . . . . .	DWord	 00000C1A _DATA	
sfCircleShape_create . . . . . .	L Near	 00000000 FLAT	External C
sfCircleShape_destroy  . . . . .	L Near	 00000000 FLAT	External C
sfCircleShape_setFillColor . . .	L Near	 00000000 FLAT	External C
sfCircleShape_setOutlineColor  .	L Near	 00000000 FLAT	External C
sfCircleShape_setOutlineThickness 	L Near	 00000000 FLAT	External C
sfCircleShape_setPosition  . . .	L Near	 00000000 FLAT	External C
sfCircleShape_setRadius  . . . .	L Near	 00000000 FLAT	External C
sfClock_create . . . . . . . . .	L Near	 00000000 FLAT	External C
sfClock_getElapsedTime . . . . .	L Near	 00000000 FLAT	External C
sfClock_restart  . . . . . . . .	L Near	 00000000 FLAT	External C
sfClose  . . . . . . . . . . . .	Number	 00000004h   
sfColor_fromRGBA . . . . . . . .	L Near	 00000000 FLAT	External C
sfColor_fromRGB  . . . . . . . .	L Near	 00000000 FLAT	External C
sfEvtClosed  . . . . . . . . . .	Number	 00000000h   
sfEvtGainedFocus . . . . . . . .	Number	 00000003h   
sfEvtKeyPressed  . . . . . . . .	Number	 00000005h   
sfEvtKeyReleased . . . . . . . .	Number	 00000006h   
sfEvtLostFocus . . . . . . . . .	Number	 00000002h   
sfEvtMouseButtonPressed  . . . .	Number	 00000009h   
sfEvtMouseButtonReleased . . . .	Number	 0000000Ah   
sfEvtMouseEntered  . . . . . . .	Number	 0000000Ch   
sfEvtMouseLeft . . . . . . . . .	Number	 0000000Dh   
sfEvtMouseMoved  . . . . . . . .	Number	 0000000Bh   
sfEvtMouseWheelMoved . . . . . .	Number	 00000007h   
sfEvtMouseWheelScrolled  . . . .	Number	 00000008h   
sfEvtResized . . . . . . . . . .	Number	 00000001h   
sfEvtTextEntered . . . . . . . .	Number	 00000004h   
sfFalse  . . . . . . . . . . . .	Number	 00000000h   
sfFont_createFromFile  . . . . .	L Near	 00000000 FLAT	External C
sfFont_destroy . . . . . . . . .	L Near	 00000000 FLAT	External C
sfFullscreen . . . . . . . . . .	Number	 00000008h   
sfKeyA . . . . . . . . . . . . .	Number	 00000000h   
sfKeyD . . . . . . . . . . . . .	Number	 00000003h   
sfKeyEnter . . . . . . . . . . .	Number	 0000003Ah   
sfKeyEscape  . . . . . . . . . .	Number	 00000024h   
sfKeyF . . . . . . . . . . . . .	Number	 00000005h   
sfKeyJ . . . . . . . . . . . . .	Number	 00000009h   
sfKeyK . . . . . . . . . . . . .	Number	 0000000Ah   
sfKeyS . . . . . . . . . . . . .	Number	 00000012h   
sfMouseLeft  . . . . . . . . . .	Number	 00000000h   
sfMouseMiddle  . . . . . . . . .	Number	 00000002h   
sfMouseRight . . . . . . . . . .	Number	 00000001h   
sfMusic_createFromFile . . . . .	L Near	 00000000 FLAT	External C
sfMusic_destroy  . . . . . . . .	L Near	 00000000 FLAT	External C
sfMusic_getStatus  . . . . . . .	L Near	 00000000 FLAT	External C
sfMusic_play . . . . . . . . . .	L Near	 00000000 FLAT	External C
sfMusic_setLoop  . . . . . . . .	L Near	 00000000 FLAT	External C
sfMusic_stop . . . . . . . . . .	L Near	 00000000 FLAT	External C
sfNone . . . . . . . . . . . . .	Number	 00000000h   
sfPaused . . . . . . . . . . . .	Number	 00000001h   
sfPlaying  . . . . . . . . . . .	Number	 00000002h   
sfRectangleShape_create  . . . .	L Near	 00000000 FLAT	External C
sfRectangleShape_destroy . . . .	L Near	 00000000 FLAT	External C
sfRectangleShape_setFillColor  .	L Near	 00000000 FLAT	External C
sfRectangleShape_setOutlineColor .	L Near	 00000000 FLAT	External C
sfRectangleShape_setOutlineThickness .	L Near	 00000000 FLAT	External C
sfRectangleShape_setPosition . .	L Near	 00000000 FLAT	External C
sfRectangleShape_setSize . . . .	L Near	 00000000 FLAT	External C
sfRenderWindow_clear . . . . . .	L Near	 00000000 FLAT	External C
sfRenderWindow_close . . . . . .	L Near	 00000000 FLAT	External C
sfRenderWindow_create  . . . . .	L Near	 00000000 FLAT	External C
sfRenderWindow_destroy . . . . .	L Near	 00000000 FLAT	External C
sfRenderWindow_display . . . . .	L Near	 00000000 FLAT	External C
sfRenderWindow_drawCircleShape .	L Near	 00000000 FLAT	External C
sfRenderWindow_drawRectangleShape 	L Near	 00000000 FLAT	External C
sfRenderWindow_drawSprite  . . .	L Near	 00000000 FLAT	External C
sfRenderWindow_drawText  . . . .	L Near	 00000000 FLAT	External C
sfRenderWindow_isOpen  . . . . .	L Near	 00000000 FLAT	External C
sfRenderWindow_pollEvent . . . .	L Near	 00000000 FLAT	External C
sfResize . . . . . . . . . . . .	Number	 00000002h   
sfSleep  . . . . . . . . . . . .	L Near	 00000000 FLAT	External C
sfSprite_create  . . . . . . . .	L Near	 00000000 FLAT	External C
sfSprite_destroy . . . . . . . .	L Near	 00000000 FLAT	External C
sfSprite_getPosition . . . . . .	L Near	 00000000 FLAT	External C
sfSprite_setPosition . . . . . .	L Near	 00000000 FLAT	External C
sfSprite_setTexture  . . . . . .	L Near	 00000000 FLAT	External C
sfStopped  . . . . . . . . . . .	Number	 00000000h   
sfText_create  . . . . . . . . .	L Near	 00000000 FLAT	External C
sfText_destroy . . . . . . . . .	L Near	 00000000 FLAT	External C
sfText_getGlobalBounds . . . . .	L Near	 00000000 FLAT	External C
sfText_getLocalBounds  . . . . .	L Near	 00000000 FLAT	External C
sfText_setCharacterSize  . . . .	L Near	 00000000 FLAT	External C
sfText_setFillColor  . . . . . .	L Near	 00000000 FLAT	External C
sfText_setFont . . . . . . . . .	L Near	 00000000 FLAT	External C
sfText_setOutlineColor . . . . .	L Near	 00000000 FLAT	External C
sfText_setOutlineThickness . . .	L Near	 00000000 FLAT	External C
sfText_setPosition . . . . . . .	L Near	 00000000 FLAT	External C
sfText_setString . . . . . . . .	L Near	 00000000 FLAT	External C
sfTexture_createFromFile . . . .	L Near	 00000000 FLAT	External C
sfTexture_destroy  . . . . . . .	L Near	 00000000 FLAT	External C
sfTitlebar . . . . . . . . . . .	Number	 00000001h   
sfTrue . . . . . . . . . . . . .	Number	 00000001h   
sfWindow_setFramerateLimit . . .	L Near	 00000000 FLAT	External C
song1Bounds  . . . . . . . . . .	sfFloatRect  00000B4A _DATA	
song1Text  . . . . . . . . . . .	DWord	 00000B2E _DATA	
song1_string . . . . . . . . . .	Byte	 00000AA0 _DATA	
song2Bounds  . . . . . . . . . .	sfFloatRect  00000B5A _DATA	
song2Text  . . . . . . . . . . .	DWord	 00000B32 _DATA	
song2_string . . . . . . . . . .	Byte	 00000AAF _DATA	
song3Bounds  . . . . . . . . . .	sfFloatRect  00000B6A _DATA	
song3Text  . . . . . . . . . . .	DWord	 00000B36 _DATA	
song3_string . . . . . . . . . .	Byte	 00000ABD _DATA	
strcspn  . . . . . . . . . . . .	L Near	 00000000 FLAT	External C
strlen . . . . . . . . . . . . .	L Near	 00000000 FLAT	External C
strncmp  . . . . . . . . . . . .	L Near	 00000000 FLAT	External C
strtok_s . . . . . . . . . . . .	L Near	 00000000 FLAT	External C
two  . . . . . . . . . . . . . .	DWord	 00000C1E _DATA	
window_realWidth . . . . . . . .	DWord	 00000B8A _DATA	

	   0 Warnings
	   0 Errors
