Microsoft (R) Macro Assembler Version 14.42.34435.0	    12/16/24 01:14:41
main_game_page.asm					     Page 1 - 1


				.686P
				.XMM
				.model flat, c
				include csfml.inc
			      C ; CSFML.INC - SFML Definitions for x86 Assembly
			      C ; 使用 MASM 語法
			      C 
			      C includelib csfml-audio.lib
			      C includelib csfml-graphics.lib
			      C includelib csfml-system.lib
			      C includelib csfml-window.lib
			      C 
			      C ; sfBool 定義
 = 00000000		      C sfFalse     equ 0
 = 00000001		      C sfTrue      equ 1
			      C 
			      C ; sfEventType 定義
 = 00000000		      C sfEvtClosed               equ 0
 = 00000001		      C sfEvtResized              equ 1
 = 00000002		      C sfEvtLostFocus            equ 2
 = 00000003		      C sfEvtGainedFocus          equ 3
 = 00000004		      C sfEvtTextEntered          equ 4
 = 00000005		      C sfEvtKeyPressed           equ 5
 = 00000006		      C sfEvtKeyReleased          equ 6
 = 00000007		      C sfEvtMouseWheelMoved      equ 7
 = 00000008		      C sfEvtMouseWheelScrolled   equ 8
 = 00000009		      C sfEvtMouseButtonPressed   equ 9
 = 0000000A		      C sfEvtMouseButtonReleased  equ 10
 = 0000000B		      C sfEvtMouseMoved           equ 11
 = 0000000C		      C sfEvtMouseEntered         equ 12
 = 0000000D		      C sfEvtMouseLeft            equ 13
			      C 
			      C ; sfMouseButton 定義
 = 00000000		      C sfMouseLeft   equ 0
 = 00000001		      C sfMouseRight  equ 1
 = 00000002		      C sfMouseMiddle equ 2
			      C 
			      C ; sfKey 定義
 = 0000003A		      C sfKeyEnter    equ 58
 = 00000000		      C sfKeyA        equ 0
 = 00000012		      C sfKeyS        equ 18
 = 00000003		      C sfKeyD        equ 3
 = 00000024		      C sfKeyEscape   equ 36
			      C 
			      C ; 視窗風格定義
 = 00000000		      C sfNone       equ 0
 = 00000001		      C sfTitlebar   equ 1
 = 00000002		      C sfResize     equ 2
 = 00000004		      C sfClose      equ 4
 = 00000008		      C sfFullscreen equ 8
			      C 
			      C ; 結構體定義
 00000008		      C sfVector2f STRUCT
 00000000  00000000	      C     x REAL4 ?
 00000004  00000000	      C     y REAL4 ?
			      C sfVector2f ENDS
			      C 
 00000008		      C sfVector2i STRUCT
 00000000  00000000	      C     x SDWORD ?
 00000004  00000000	      C     y SDWORD ?
			      C sfVector2i ENDS
			      C 
 0000000C		      C sfVideoMode STRUCT
 00000000  00000000	      C     _width  DWORD ?
 00000004  00000000	      C     height DWORD ?
 00000008  00000000	      C     bpp    DWORD ?
			      C sfVideoMode ENDS
			      C 
 00000004		      C sfColor STRUCT
 00000000  00		      C     r BYTE ?
 00000001  00		      C     g BYTE ?
 00000002  00		      C     b BYTE ?
 00000003  00		      C     a BYTE ?
			      C sfColor ENDS
			      C 
 00000010		      C sfFloatRect STRUCT
 00000000  00000000	      C     left   REAL4 ?
 00000004  00000000	      C     top    REAL4 ?
 00000008  00000000	      C     _width  REAL4 ?
 0000000C  00000000	      C     height REAL4 ?
			      C sfFloatRect ENDS
			      C 
 0000000C		      C mouseButton STRUCT
 00000000  00000000	      C     button DWORD ?
 00000004  00000000	      C     x DWORD ?
 00000008  00000000	      C     y DWORD ?
			      C mouseButton ENDS
			      C 
 00000014		      C key STRUCT
 00000000  00000000	      C     code DWORD ?
 00000004  00000000	      C     alt DWORD ?
 00000008  00000000	      C     control DWORD ?
 0000000C  00000000	      C     shift DWORD ?
 00000010  00000000	      C     system DWORD ?
			      C key ENDS
			      C 
 00000030		      C sfEvent STRUCT
 00000000  00000000	      C     _type DWORD ?                
 00000004  00000000	      C     _size DWORD ?                
 00000008  00000000	      C     mouse mouseButton <>       
	   00000000
	   00000000
 00000014  00000000	      C     _key key <>                 
	   00000000
	   00000000
	   00000000
	   00000000
 00000028  00000000	      C     mouseMove sfVector2i <>     
	   00000000
			      C sfEvent ENDS
			      C 
			      C ; 函數原型 - 視窗相關
			      C EXTERN sfRenderWindow_create:PROC
			      C EXTERN sfRenderWindow_destroy:PROC
			      C EXTERN sfRenderWindow_close:PROC
			      C EXTERN sfRenderWindow_isOpen:PROC
			      C EXTERN sfRenderWindow_clear:PROC
			      C EXTERN sfRenderWindow_display:PROC
			      C EXTERN sfRenderWindow_pollEvent:PROC
			      C EXTERN sfRenderWindow_drawSprite:PROC
			      C EXTERN sfRenderWindow_drawText:PROC
			      C 
			      C ; 函數原型 - 紋理相關
			      C EXTERN sfTexture_createFromFile:PROC
			      C EXTERN sfTexture_destroy:PROC
			      C 
			      C ; 函數原型 - 精靈相關
			      C EXTERN sfSprite_create:PROC
			      C EXTERN sfSprite_destroy:PROC
			      C EXTERN sfSprite_setTexture:PROC
			      C 
			      C ; 函數原型 - 音樂相關
			      C EXTERN sfMusic_createFromFile:PROC
			      C EXTERN sfMusic_destroy:PROC
			      C EXTERN sfMusic_play:PROC
			      C EXTERN sfMusic_setLoop:PROC
			      C EXTERN sfMusic_stop: PROC
			      C EXTERN sfMusic_getStatus: PROC
			      C 
			      C ; 函數原型 - 文字相關
			      C EXTERN sfFont_createFromFile:PROC
			      C EXTERN sfFont_destroy:PROC
			      C EXTERN sfText_create:PROC
			      C EXTERN sfText_destroy:PROC
			      C EXTERN sfText_setFont:PROC
			      C EXTERN sfText_setString:PROC
			      C EXTERN sfText_setCharacterSize:PROC
			      C EXTERN sfText_setFillColor:PROC
			      C EXTERN sfText_setOutlineColor:PROC
			      C EXTERN sfText_setOutlineThickness:PROC
			      C EXTERN sfText_getLocalBounds:PROC
			      C EXTERN sfText_getGlobalBounds:PROC
			      C EXTERN sfText_setPosition:PROC
			      C 
			      C ; 函數原型 - 顏色相關
			      C EXTERN sfColor_fromRGB:PROC
			      C EXTERN sfColor_fromRGBA:PROC
			      C 
			      C ; 函數原型 - 矩形相關
			      C EXTERN sfRectangleShape_create: PROC
			      C EXTERN sfRectangleShape_setPosition: PROC
			      C EXTERN sfRectangleShape_setSize: PROC
			      C EXTERN sfRectangleShape_setFillColor: PROC
			      C EXTERN sfRectangleShape_setOutlineThickness: PROC
			      C EXTERN sfRenderWindow_drawRectangleShape: PROC
			      C EXTERN sfRectangleShape_destroy: PROC
			      C EXTERN sfRectangleShape_setOutlineColor: PROC
			      C 
			      C EXTERN sfSleep: PROC
			      C 

				extern currentPage: DWORD
				extern selected_music_path: DWORD
				extern selected_beatmap1_path: DWORD

 00000000			.data
				    ; 判定窗口 (以毫秒計)
 00000000 00000023		    hitWindowGreat DWORD 35   ; "Great" 判定範圍
 00000004 00000050		    hitWindowGood  DWORD 80   ; "Good" 判定範圍
 00000008 00000078		    hitWindowMiss  DWORD 120  ; "Miss" 判定範圍

				    ; 結果統計
 0000000C 00000000		    greatCounter DWORD 0      ; "Great" 計數
 00000010 00000000		    goodCounter  DWORD 0      ; "Good" 計數
 00000014 00000000		    missCounter  DWORD 0      ; "Miss" 計數
 00000018 00000000		    comboCounter DWORD 0      ; 目前連擊數
 0000001C 00000000		    maxCombo     DWORD 0      ; 最大連擊數
 00000020 00000000		    scoreCounter DWORD 0      ; 總得分

				    ; 選中的音樂和譜面檔案
				    ;selectedMusicPath db 256 DUP(0)    ; 音樂檔案路徑
				    ;selectedBeatmapPath db 256 DUP(0)  ; 譜面檔案路徑

				    ; 時間與遊戲狀態
 00000024 00000000		    currentNoteIndex DWORD 0  ; 當前音符索引
 00000028 00000000		    currentSongTime DWORD 0   ; 當前歌曲時間 (毫秒)
 0000002C FFFFFFFF		    lastJudgment DWORD -1     ; 上一次判定結果

				    ; 譜面音符時間
 00000030  00000100 [		    noteTimings DWORD 256 DUP(?) ; 儲存音符時間
	    00000000
	   ]
 00000430 00000000		    noteCount DWORD 0            ; 總音符數量

				    ; CSFML 物件
 00000434 00000000		    bgMusic dd 0
 00000438 00000000		    bgTexture dd 0               ; 背景紋理
 0000043C 00000000		    bgSprite dd 0                ; 背景精靈
 00000440 00000000		    circleTexture dd 0           ; 圓形音符紋理
 00000444 00000000		    circleSprite dd 0            ; 圓形音符精靈
 00000448 00000000		    font dd 0                    ; 字型
 0000044C 00000000		    scoreText dd 0               ; 分數文字
 00000450 00000000		    comboText dd 0               ; 連擊文字

				    ; 事件結構
 00000454 00000000		    event sfEvent <>
	   00000000
	   00000000
	   00000000
	   00000000
	   00000000
	   00000000
	   00000000
	   00000000
	   00000000
	   00000000
	   00000000

				    ; 畫面設定
 00000484 00000500		    window_videoMode sfVideoMode <1280, 720, 32> ; 視窗大小與格式
	   000002D0
	   00000020
 00000490 54 61 69 6B 6F	    windowTitle db "Taiko Simulator", 0          ; 視窗標題
	   20 53 69 6D 75
	   6C 61 74 6F 72
	   00
 000004A0 40A00000		    scrollSpeed REAL4 5.0        ; 音符滾動速度
 000004A4 44160000		    laneHeight REAL4 600.0       ; 音符軌道高度

				    ; 顏色常數
 000004A8 FF FF FF FF		    whiteColor sfColor <255, 255, 255, 255> ; 白色
 000004AC 00 00 00 FF		    blackColor sfColor <0, 0, 0, 255>       ; 黑色

				    ; 檔案路徑
				    ;musicPath db "assets\main\v_title.ogg", 0
 000004B0 61 73 73 65 74	    bgPath db "assets\main\game_bg.jpg", 0
	   73 5C 6D 61 69
	   6E 5C 67 61 6D
	   65 5F 62 67 2E
	   6A 70 67 00
 000004C8 61 73 73 65 74	    fontPath db "assets\main\Taiko_No_Tatsujin_Official_Font.ttf", 0
	   73 5C 6D 61 69
	   6E 5C 54 61 69
	   6B 6F 5F 4E 6F
	   5F 54 61 74 73
	   75 6A 69 6E 5F
	   4F 66 66 69 63
	   69 61 6C 5F 46
	   6F 6E 74 2E 74
	   74 66 00

 00000000			.code

				; 載入背景
 00000000			load_background PROC
				    ; 創建背景紋理
 00000000  6A 00		    push 0
 00000002  68 000004B0 R	    push offset bgPath
 00000007  E8 00000000 E	    call sfTexture_createFromFile
 0000000C  83 C4 08		    add esp, 8
 0000000F  A3 00000438 R	    mov bgTexture, eax
				    
				    ; 創建背景精靈
 00000014  E8 00000000 E	    call sfSprite_create
 00000019  A3 0000043C R	    mov DWORD PTR [bgSprite], eax
				    
				    ; 設定紋理
 0000001E  6A 01		    push 1
 00000020  A1 00000438 R	    mov eax, DWORD PTR [bgTexture]
 00000025  50			    push eax
 00000026  8B 0D 0000043C R	    mov ecx, DWORD PTR [bgSprite]
 0000002C  51			    push ecx
 0000002D  E8 00000000 E	    call sfSprite_setTexture
 00000032  83 C4 0C		    add esp, 12
 00000035  C3			    ret
 00000036			load_background ENDP

 00000036			game_play_music PROC
 00000036  68 00000000 E	    push offset selected_music_path
 0000003B  E8 00000000 E	    call sfMusic_createFromFile
 00000040  83 C4 04		    add esp, 4 
 00000043  A3 00000434 R	    mov bgMusic, eax

 00000048  50			    push eax
 00000049  E8 00000000 E	    call sfMusic_play
 0000004E  83 C4 04		    add esp, 4
 00000051  C3			    ret
 00000052			game_play_music ENDP

 00000052			main_game_page PROC window:DWORD
				    ; 創建視窗
				    ;push OFFSET windowTitle
				    ;push 0
				    ;push OFFSET window_videoMode
				    ;call sfRenderWindow_create
				    ;mov window, eax
				    ;test eax, eax
				    ;jz ExitGame

 00000055  E8 FFFFFFA6		    call load_background
 0000005A  85 C0		    test eax, eax
 0000005C  0F 84 00000165	    jz ExitGame

				    ; 加載背景與音符精靈
				    ;call load_background
				    call setup_notes
main_game_page.asm(119) : error A2006:undefined symbol : setup_notes

				    ; 初始化分數與文字顯示
				    ;call setup_text

				    ; 加載譜面檔案
				    ;call load_beatmap

				    ; 播放選中的音樂
				    ;push OFFSET selectedMusicPath
				    ;call sfMusic_createFromFile
				    ;add esp, 4
				    ;mov bgMusic, eax

				    ;push bgMusic
				    ;call sfMusic_play
				    ;add esp, 4

 00000062  E8 FFFFFFCF		    call game_play_music

				    ; 初始化遊戲狀態
 00000067  C7 05 00000024 R	    mov currentNoteIndex, 0
	   00000000
 00000071  C7 05 00000028 R	    mov currentSongTime, 0
	   00000000

 00000086			GameLoop:
				    ; 檢查視窗是否開啟
				    ;push window
				    ;call sfRenderWindow_isOpen
				    ;add esp, 4
				    ;test eax, eax
				    ;jz ExitGame

 00000086  8B 45 08		    mov eax, DWORD PTR [window]
 00000089  50			    push eax
 0000008A  E8 00000000 E	    call sfRenderWindow_isOpen
 0000008F  83 C4 04		    add esp, 4
 00000092  85 C0		    test eax, eax
 00000094  0F 84 0000012D	    je ExitGame

				    ; 模擬時間流逝 (每次迴圈遞增 16 毫秒)
 0000009A  83 05 00000028 R	    add currentSongTime, 16
	   10

				    ; 檢查是否達到遊戲結束條件
 000000A1  A1 00000024 R	    mov eax, currentNoteIndex
 000000A6  3B 05 00000430 R	    cmp eax, noteCount
 000000AC  0F 8D 000000FF	    jge EndGame

				    ; 處理事件
 000000B2  8D 35 00000454 R	    lea esi, event
 000000B8  56			    push esi
				    ;push window
 000000B9  8B 45 08		    mov eax, DWORD PTR [window]
 000000BC  E8 00000000 E	    call sfRenderWindow_pollEvent
 000000C1  83 C4 08		    add esp, 8
 000000C4  85 C0		    test eax, eax
 000000C6  74 05		    je RenderWindow

				    ; 檢查按鍵事件 (按下空白鍵模擬音符判定)
 000000C8  83 3E 05		    cmp dword ptr [esi].sfEvent._type, sfEvtKeyPressed
 000000CB  74 12		    je handle_key_input

 000000CD			RenderWindow:
				    ; 更新並渲染畫面
				    call render_game_window
main_game_page.asm(182) : error A2006:undefined symbol : render_game_window

				    ; 檢查當前音符的判定
 000000CD  E8 0000001F		    call check_notes
 000000D2  EB B2		    jmp GameLoop

 000000DF			handle_key_input:
				    cmp dword ptr [esi+4], sfKeySpace
main_game_page.asm(189) : error A2006:undefined symbol : sfKeySpace
 000000DF  74 10		    je check_notes
 000000E1  EB A3		    jmp GameLoop

 000000E3			check_notes PROC
main_game_page.asm(193) : error A2144:cannot nest procedures
				    ; 取得當前音符的時間並計算與當前歌曲時間的差距
 000000E3  BE 00000030 R	    mov esi, OFFSET noteTimings
 000000E8  A1 00000024 R	    mov eax, currentNoteIndex
 000000ED  8B 1C 86		    mov ebx, DWORD PTR [esi + eax * 4]
 000000F0  2B 1D 00000028 R	    sub ebx, currentSongTime

				    ; 判斷是否符合 "Great" 的窗口
 000000F6  3B 1D 00000000 R	    cmp ebx, hitWindowGreat
 000000FC  7E 1E		    jle handle_great
				    ; 判斷是否符合 "Good" 的窗口
 000000FE  3B 1D 00000004 R	    cmp ebx, hitWindowGood
 00000104  7E 56		    jle handle_good
				    ; 如果超過 "Miss" 窗口，則忽略該音符
 00000106  3B 1D 00000008 R	    cmp ebx, hitWindowMiss
 0000010C  7F 74		    jg skip_note

 0000011C			handle_great:
				    ; 增加 "Great" 計數和分數，更新最大連擊
 0000011C  FF 05 0000000C R	    inc greatCounter
 00000122  81 05 00000020 R	    add scoreCounter, 300
	   0000012C
 0000012C  FF 05 00000018 R	    inc comboCounter
 00000132  A1 00000018 R	    mov eax, comboCounter
 00000137  3B 05 0000001C R	    cmp eax, maxCombo
 0000013D  7E 0A		    jle skip_max_combo
 0000013F  A1 0000001C R	    mov eax, maxCombo
 00000144  A1 00000018 R	    mov eax, comboCounter
 00000149			skip_max_combo:
				    call update_score_text
main_game_page.asm(221) : error A2006:undefined symbol : update_score_text
 00000149  FF 05 00000024 R	    inc currentNoteIndex
				    ret

 0000015C			handle_good:
				    ; 增加 "Good" 計數和分數
 0000015C  FF 05 00000010 R	    inc goodCounter
 00000162  83 05 00000020 R	    add scoreCounter, 100
	   64
 00000169  FF 05 00000018 R	    inc comboCounter
				    call update_score_text
main_game_page.asm(230) : error A2006:undefined symbol : update_score_text
 0000016F  FF 05 00000024 R	    inc currentNoteIndex
				    ret

 00000182			skip_note:
				    ; 如果音符已超過 "Miss" 窗口
 00000182  83 FB 00		    cmp ebx, 0
				    jg RenderWindow
main_game_page.asm(237) : error A2006:undefined symbol : RenderWindow
 00000185  FF 05 00000014 R	    inc missCounter
 0000018B  C7 05 00000018 R	    mov comboCounter, 0
	   00000000
				    call update_score_text
main_game_page.asm(240) : error A2006:undefined symbol : update_score_text
 00000195  FF 05 00000024 R	    inc currentNoteIndex
				    ret

 0000019D			check_notes ENDP

 000001B1			EndGame:
				    ; 遊戲結束時顯示最終結果
				    call display_results
main_game_page.asm(248) : error A2006:undefined symbol : display_results
 000001B1  C7 05 00000000 E	    mov DWORD PTR [currentPage], -1
	   FFFFFFFF
 000001BB  C3			    ret

 000001C7			ExitGame:
				    ; 清理資源並退出遊戲
 000001C7  FF 35 00000434 R	    push bgMusic
 000001CD  E8 00000000 E	    call sfMusic_destroy
 000001D2  83 C4 04		    add esp, 4

 000001D5  FF 35 0000043C R	    push bgSprite
 000001DB  E8 00000000 E	    call sfSprite_destroy
 000001E0  83 C4 04		    add esp, 4

 000001E3  FF 35 00000444 R	    push circleSprite
 000001E9  E8 00000000 E	    call sfSprite_destroy
 000001EE  83 C4 04		    add esp, 4

 000001F1  FF 35 00000448 R	    push font
 000001F7  E8 00000000 E	    call sfFont_destroy
 000001FC  83 C4 04		    add esp, 4

 000001FF  FF 75 08		    push window
 00000202  E8 00000000 E	    call sfRenderWindow_close
 00000207  83 C4 04		    add esp, 4

 0000020A  FF 75 08		    push window
 0000020D  E8 00000000 E	    call sfRenderWindow_destroy
 00000212  83 C4 04		    add esp, 4

 00000215  C3			    ret
 00000216			main_game_page ENDP
				END main_game_page
Microsoft (R) Macro Assembler Version 14.42.34435.0	    12/16/24 01:14:41
main_game_page.asm					     Symbols 2 - 1




Structures and Unions:

                N a m e                  Size
                                         Offset      Type

key  . . . . . . . . . . . . . .	 00000014
  code . . . . . . . . . . . . .	 00000000	 DWord
  alt  . . . . . . . . . . . . .	 00000004	 DWord
  control  . . . . . . . . . . .	 00000008	 DWord
  shift  . . . . . . . . . . . .	 0000000C	 DWord
  system . . . . . . . . . . . .	 00000010	 DWord
mouseButton  . . . . . . . . . .	 0000000C
  button . . . . . . . . . . . .	 00000000	 DWord
  x  . . . . . . . . . . . . . .	 00000004	 DWord
  y  . . . . . . . . . . . . . .	 00000008	 DWord
sfColor  . . . . . . . . . . . .	 00000004
  r  . . . . . . . . . . . . . .	 00000000	 Byte
  g  . . . . . . . . . . . . . .	 00000001	 Byte
  b  . . . . . . . . . . . . . .	 00000002	 Byte
  a  . . . . . . . . . . . . . .	 00000003	 Byte
sfEvent  . . . . . . . . . . . .	 00000030
  _type  . . . . . . . . . . . .	 00000000	 DWord
  _size  . . . . . . . . . . . .	 00000004	 DWord
  mouse  . . . . . . . . . . . .	 00000008	 
  _key . . . . . . . . . . . . .	 00000014	 
  mouseMove  . . . . . . . . . .	 00000028	 QWord
sfFloatRect  . . . . . . . . . .	 00000010
  left . . . . . . . . . . . . .	 00000000	 DWord
  top  . . . . . . . . . . . . .	 00000004	 DWord
  _width . . . . . . . . . . . .	 00000008	 DWord
  height . . . . . . . . . . . .	 0000000C	 DWord
sfVector2f . . . . . . . . . . .	 00000008
  x  . . . . . . . . . . . . . .	 00000000	 DWord
  y  . . . . . . . . . . . . . .	 00000004	 DWord
sfVector2i . . . . . . . . . . .	 00000008
  x  . . . . . . . . . . . . . .	 00000000	 DWord
  y  . . . . . . . . . . . . . .	 00000004	 DWord
sfVideoMode  . . . . . . . . . .	 0000000C
  _width . . . . . . . . . . . .	 00000000	 DWord
  height . . . . . . . . . . . .	 00000004	 DWord
  bpp  . . . . . . . . . . . . .	 00000008	 DWord


Segments and Groups:

                N a m e                 Size     Length   Align   Combine Class

FLAT . . . . . . . . . . . . . .	GROUP
_DATA  . . . . . . . . . . . . .	32 Bit	 000004F8 Para	  Public  'DATA'	
_TEXT  . . . . . . . . . . . . .	32 Bit	 00000216 Para	  Public  'CODE'	


Procedures, parameters, and locals:

                N a m e                 Type     Value    Attr

check_notes  . . . . . . . . . .	P Near	 000000F1 _TEXT	Length= 000000C0 Public C
  handle_great . . . . . . . . .	L Near	 0000011C _TEXT	
  skip_max_combo . . . . . . . .	L Near	 00000149 _TEXT	
  handle_good  . . . . . . . . .	L Near	 0000015C _TEXT	
  skip_note  . . . . . . . . . .	L Near	 00000182 _TEXT	
game_play_music  . . . . . . . .	P Near	 00000036 _TEXT	Length= 0000001C Public C
load_background  . . . . . . . .	P Near	 00000000 _TEXT	Length= 00000036 Public C
main_game_page . . . . . . . . .	P Near	 00000052 _TEXT	Length= 000001C4 Public C
  window . . . . . . . . . . . .	DWord	 bp + 00000008
  GameLoop . . . . . . . . . . .	L Near	 00000086 _TEXT	
  RenderWindow . . . . . . . . .	L Near	 000000CD _TEXT	
  handle_key_input . . . . . . .	L Near	 000000DF _TEXT	
  EndGame  . . . . . . . . . . .	L Near	 000001B1 _TEXT	
  ExitGame . . . . . . . . . . .	L Near	 000001C7 _TEXT	


Symbols:

                N a m e                 Type     Value    Attr

@CodeSize  . . . . . . . . . . .	Number	 00000000h   
@DataSize  . . . . . . . . . . .	Number	 00000000h   
@Interface . . . . . . . . . . .	Number	 00000001h   
@Model . . . . . . . . . . . . .	Number	 00000007h   
@code  . . . . . . . . . . . . .	Text   	 _TEXT
@data  . . . . . . . . . . . . .	Text   	 FLAT
@fardata?  . . . . . . . . . . .	Text   	 FLAT
@fardata . . . . . . . . . . . .	Text   	 FLAT
@stack . . . . . . . . . . . . .	Text   	 FLAT
bgMusic  . . . . . . . . . . . .	DWord	 00000434 _DATA	
bgPath . . . . . . . . . . . . .	Byte	 000004B0 _DATA	
bgSprite . . . . . . . . . . . .	DWord	 0000043C _DATA	
bgTexture  . . . . . . . . . . .	DWord	 00000438 _DATA	
blackColor . . . . . . . . . . .	sfColor	 000004AC _DATA	
circleSprite . . . . . . . . . .	DWord	 00000444 _DATA	
circleTexture  . . . . . . . . .	DWord	 00000440 _DATA	
comboCounter . . . . . . . . . .	DWord	 00000018 _DATA	
comboText  . . . . . . . . . . .	DWord	 00000450 _DATA	
currentNoteIndex . . . . . . . .	DWord	 00000024 _DATA	
currentPage  . . . . . . . . . .	DWord	 00000000 FLAT	External C
currentSongTime  . . . . . . . .	DWord	 00000028 _DATA	
event  . . . . . . . . . . . . .	sfEvent	 00000454 _DATA	
fontPath . . . . . . . . . . . .	Byte	 000004C8 _DATA	
font . . . . . . . . . . . . . .	DWord	 00000448 _DATA	
goodCounter  . . . . . . . . . .	DWord	 00000010 _DATA	
greatCounter . . . . . . . . . .	DWord	 0000000C _DATA	
hitWindowGood  . . . . . . . . .	DWord	 00000004 _DATA	
hitWindowGreat . . . . . . . . .	DWord	 00000000 _DATA	
hitWindowMiss  . . . . . . . . .	DWord	 00000008 _DATA	
laneHeight . . . . . . . . . . .	DWord	 000004A4 _DATA	
lastJudgment . . . . . . . . . .	DWord	 0000002C _DATA	
maxCombo . . . . . . . . . . . .	DWord	 0000001C _DATA	
missCounter  . . . . . . . . . .	DWord	 00000014 _DATA	
noteCount  . . . . . . . . . . .	DWord	 00000430 _DATA	
noteTimings  . . . . . . . . . .	DWord	 00000030 _DATA	
scoreCounter . . . . . . . . . .	DWord	 00000020 _DATA	
scoreText  . . . . . . . . . . .	DWord	 0000044C _DATA	
scrollSpeed  . . . . . . . . . .	DWord	 000004A0 _DATA	
selected_beatmap1_path . . . . .	DWord	 00000000 FLAT	External C
selected_music_path  . . . . . .	DWord	 00000000 FLAT	External C
sfClose  . . . . . . . . . . . .	Number	 00000004h   
sfColor_fromRGBA . . . . . . . .	L Near	 00000000 FLAT	External C
sfColor_fromRGB  . . . . . . . .	L Near	 00000000 FLAT	External C
sfEvtClosed  . . . . . . . . . .	Number	 00000000h   
sfEvtGainedFocus . . . . . . . .	Number	 00000003h   
sfEvtKeyPressed  . . . . . . . .	Number	 00000005h   
sfEvtKeyReleased . . . . . . . .	Number	 00000006h   
sfEvtLostFocus . . . . . . . . .	Number	 00000002h   
sfEvtMouseButtonPressed  . . . .	Number	 00000009h   
sfEvtMouseButtonReleased . . . .	Number	 0000000Ah   
sfEvtMouseEntered  . . . . . . .	Number	 0000000Ch   
sfEvtMouseLeft . . . . . . . . .	Number	 0000000Dh   
sfEvtMouseMoved  . . . . . . . .	Number	 0000000Bh   
sfEvtMouseWheelMoved . . . . . .	Number	 00000007h   
sfEvtMouseWheelScrolled  . . . .	Number	 00000008h   
sfEvtResized . . . . . . . . . .	Number	 00000001h   
sfEvtTextEntered . . . . . . . .	Number	 00000004h   
sfFalse  . . . . . . . . . . . .	Number	 00000000h   
sfFont_createFromFile  . . . . .	L Near	 00000000 FLAT	External C
sfFont_destroy . . . . . . . . .	L Near	 00000000 FLAT	External C
sfFullscreen . . . . . . . . . .	Number	 00000008h   
sfKeyA . . . . . . . . . . . . .	Number	 00000000h   
sfKeyD . . . . . . . . . . . . .	Number	 00000003h   
sfKeyEnter . . . . . . . . . . .	Number	 0000003Ah   
sfKeyEscape  . . . . . . . . . .	Number	 00000024h   
sfKeyS . . . . . . . . . . . . .	Number	 00000012h   
sfMouseLeft  . . . . . . . . . .	Number	 00000000h   
sfMouseMiddle  . . . . . . . . .	Number	 00000002h   
sfMouseRight . . . . . . . . . .	Number	 00000001h   
sfMusic_createFromFile . . . . .	L Near	 00000000 FLAT	External C
sfMusic_destroy  . . . . . . . .	L Near	 00000000 FLAT	External C
sfMusic_getStatus  . . . . . . .	L Near	 00000000 FLAT	External C
sfMusic_play . . . . . . . . . .	L Near	 00000000 FLAT	External C
sfMusic_setLoop  . . . . . . . .	L Near	 00000000 FLAT	External C
sfMusic_stop . . . . . . . . . .	L Near	 00000000 FLAT	External C
sfNone . . . . . . . . . . . . .	Number	 00000000h   
sfRectangleShape_create  . . . .	L Near	 00000000 FLAT	External C
sfRectangleShape_destroy . . . .	L Near	 00000000 FLAT	External C
sfRectangleShape_setFillColor  .	L Near	 00000000 FLAT	External C
sfRectangleShape_setOutlineColor .	L Near	 00000000 FLAT	External C
sfRectangleShape_setOutlineThickness .	L Near	 00000000 FLAT	External C
sfRectangleShape_setPosition . .	L Near	 00000000 FLAT	External C
sfRectangleShape_setSize . . . .	L Near	 00000000 FLAT	External C
sfRenderWindow_clear . . . . . .	L Near	 00000000 FLAT	External C
sfRenderWindow_close . . . . . .	L Near	 00000000 FLAT	External C
sfRenderWindow_create  . . . . .	L Near	 00000000 FLAT	External C
sfRenderWindow_destroy . . . . .	L Near	 00000000 FLAT	External C
sfRenderWindow_display . . . . .	L Near	 00000000 FLAT	External C
sfRenderWindow_drawRectangleShape 	L Near	 00000000 FLAT	External C
sfRenderWindow_drawSprite  . . .	L Near	 00000000 FLAT	External C
sfRenderWindow_drawText  . . . .	L Near	 00000000 FLAT	External C
sfRenderWindow_isOpen  . . . . .	L Near	 00000000 FLAT	External C
sfRenderWindow_pollEvent . . . .	L Near	 00000000 FLAT	External C
sfResize . . . . . . . . . . . .	Number	 00000002h   
sfSleep  . . . . . . . . . . . .	L Near	 00000000 FLAT	External C
sfSprite_create  . . . . . . . .	L Near	 00000000 FLAT	External C
sfSprite_destroy . . . . . . . .	L Near	 00000000 FLAT	External C
sfSprite_setTexture  . . . . . .	L Near	 00000000 FLAT	External C
sfText_create  . . . . . . . . .	L Near	 00000000 FLAT	External C
sfText_destroy . . . . . . . . .	L Near	 00000000 FLAT	External C
sfText_getGlobalBounds . . . . .	L Near	 00000000 FLAT	External C
sfText_getLocalBounds  . . . . .	L Near	 00000000 FLAT	External C
sfText_setCharacterSize  . . . .	L Near	 00000000 FLAT	External C
sfText_setFillColor  . . . . . .	L Near	 00000000 FLAT	External C
sfText_setFont . . . . . . . . .	L Near	 00000000 FLAT	External C
sfText_setOutlineColor . . . . .	L Near	 00000000 FLAT	External C
sfText_setOutlineThickness . . .	L Near	 00000000 FLAT	External C
sfText_setPosition . . . . . . .	L Near	 00000000 FLAT	External C
sfText_setString . . . . . . . .	L Near	 00000000 FLAT	External C
sfTexture_createFromFile . . . .	L Near	 00000000 FLAT	External C
sfTexture_destroy  . . . . . . .	L Near	 00000000 FLAT	External C
sfTitlebar . . . . . . . . . . .	Number	 00000001h   
sfTrue . . . . . . . . . . . . .	Number	 00000001h   
whiteColor . . . . . . . . . . .	sfColor	 000004A8 _DATA	
windowTitle  . . . . . . . . . .	Byte	 00000490 _DATA	
window_videoMode . . . . . . . .	sfVideoMode  00000484 _DATA	

	   0 Warnings
	   9 Errors
