Microsoft (R) Macro Assembler Version 14.42.34435.0	    12/19/24 03:35:59
main_game_page.asm					     Page 1 - 1


				.model flat, c
				include csfml.inc
			      C ; CSFML.INC - SFML Definitions for x86 Assembly
			      C ; 使用 MASM 語法
			      C 
			      C includelib csfml-audio.lib
			      C includelib csfml-graphics.lib
			      C includelib csfml-system.lib
			      C includelib csfml-window.lib
			      C 
			      C ; sfBool 定義
 = 00000000		      C sfFalse     equ 0
 = 00000001		      C sfTrue      equ 1
			      C 
			      C ; sfEventType 定義
 = 00000000		      C sfEvtClosed               equ 0
 = 00000001		      C sfEvtResized              equ 1
 = 00000002		      C sfEvtLostFocus            equ 2
 = 00000003		      C sfEvtGainedFocus          equ 3
 = 00000004		      C sfEvtTextEntered          equ 4
 = 00000005		      C sfEvtKeyPressed           equ 5
 = 00000006		      C sfEvtKeyReleased          equ 6
 = 00000007		      C sfEvtMouseWheelMoved      equ 7
 = 00000008		      C sfEvtMouseWheelScrolled   equ 8
 = 00000009		      C sfEvtMouseButtonPressed   equ 9
 = 0000000A		      C sfEvtMouseButtonReleased  equ 10
 = 0000000B		      C sfEvtMouseMoved           equ 11
 = 0000000C		      C sfEvtMouseEntered         equ 12
 = 0000000D		      C sfEvtMouseLeft            equ 13
			      C 
			      C ; sfMouseButton 定義
 = 00000000		      C sfMouseLeft   equ 0
 = 00000001		      C sfMouseRight  equ 1
 = 00000002		      C sfMouseMiddle equ 2
			      C 
			      C ; sfKey 定義
 = 0000003A		      C sfKeyEnter    equ 58
 = 00000000		      C sfKeyA        equ 0
 = 00000012		      C sfKeyS        equ 18
 = 00000003		      C sfKeyD        equ 3
 = 00000024		      C sfKeyEscape   equ 36
			      C 
			      C ; 視窗風格定義
 = 00000000		      C sfNone       equ 0
 = 00000001		      C sfTitlebar   equ 1
 = 00000002		      C sfResize     equ 2
 = 00000004		      C sfClose      equ 4
 = 00000008		      C sfFullscreen equ 8
			      C 
			      C ; 結構體定義
 00000008		      C sfVector2f STRUCT
 00000000  00000000	      C     x REAL4 ?
 00000004  00000000	      C     y REAL4 ?
			      C sfVector2f ENDS
			      C 
 00000008		      C sfVector2i STRUCT
 00000000  00000000	      C     x SDWORD ?
 00000004  00000000	      C     y SDWORD ?
			      C sfVector2i ENDS
			      C 
 0000000C		      C sfVideoMode STRUCT
 00000000  00000000	      C     _width  DWORD ?
 00000004  00000000	      C     height DWORD ?
 00000008  00000000	      C     bpp    DWORD ?
			      C sfVideoMode ENDS
			      C 
 00000004		      C sfColor STRUCT
 00000000  00		      C     r BYTE ?
 00000001  00		      C     g BYTE ?
 00000002  00		      C     b BYTE ?
 00000003  00		      C     a BYTE ?
			      C sfColor ENDS
			      C 
 00000010		      C sfFloatRect STRUCT
 00000000  00000000	      C     left   REAL4 ?
 00000004  00000000	      C     top    REAL4 ?
 00000008  00000000	      C     _width  REAL4 ?
 0000000C  00000000	      C     height REAL4 ?
			      C sfFloatRect ENDS
			      C 
 0000000C		      C mouseButton STRUCT
 00000000  00000000	      C     button DWORD ?
 00000004  00000000	      C     x DWORD ?
 00000008  00000000	      C     y DWORD ?
			      C mouseButton ENDS
			      C 
 00000014		      C key STRUCT
 00000000  00000000	      C     code DWORD ?
 00000004  00000000	      C     alt DWORD ?
 00000008  00000000	      C     control DWORD ?
 0000000C  00000000	      C     shift DWORD ?
 00000010  00000000	      C     system DWORD ?
			      C key ENDS
			      C 
 00000030		      C sfEvent STRUCT
 00000000  00000000	      C     _type DWORD ?                
 00000004  00000000	      C     _size DWORD ?                
 00000008  00000000	      C     mouse mouseButton <>       
	   00000000
	   00000000
 00000014  00000000	      C     _key key <>                 
	   00000000
	   00000000
	   00000000
	   00000000
 00000028  00000000	      C     mouseMove sfVector2i <>     
	   00000000
			      C sfEvent ENDS
			      C 
 00000004		      C sfTime STRUCT
 00000000  00000000	      C     microseconds DWORD ?    
			      C sfTime ENDS
			      C 
			      C ; 函數原型 - 視窗相關
			      C EXTERN sfRenderWindow_create:PROC
			      C EXTERN sfRenderWindow_destroy:PROC
			      C EXTERN sfRenderWindow_close:PROC
			      C EXTERN sfRenderWindow_isOpen:PROC
			      C EXTERN sfRenderWindow_clear:PROC
			      C EXTERN sfRenderWindow_display:PROC
			      C EXTERN sfRenderWindow_pollEvent:PROC
			      C EXTERN sfRenderWindow_drawSprite:PROC
			      C EXTERN sfRenderWindow_drawText:PROC
			      C 
			      C ; 函數原型 - 紋理相關
			      C EXTERN sfTexture_createFromFile:PROC
			      C EXTERN sfTexture_destroy:PROC
			      C 
			      C ; 函數原型 - 精靈相關
			      C EXTERN sfSprite_create:PROC
			      C EXTERN sfSprite_destroy:PROC
			      C EXTERN sfSprite_setTexture:PROC
			      C EXTERN sfSprite_setPosition:PROC
			      C EXTERN sfSprite_setOrigin:PROC
			      C EXTERN sfSprite_move:PROC
			      C 
			      C ; 函數原型 - 音樂相關
			      C EXTERN sfMusic_createFromFile:PROC
			      C EXTERN sfMusic_destroy:PROC
			      C EXTERN sfMusic_play:PROC
			      C EXTERN sfMusic_setLoop:PROC
			      C EXTERN sfMusic_stop: PROC
			      C EXTERN sfMusic_getStatus: PROC
			      C 
			      C ; 函數原型 - 文字相關
			      C EXTERN sfFont_createFromFile:PROC
			      C EXTERN sfFont_destroy:PROC
			      C EXTERN sfText_create:PROC
			      C EXTERN sfText_destroy:PROC
			      C EXTERN sfText_setFont:PROC
			      C EXTERN sfText_setString:PROC
			      C EXTERN sfText_setCharacterSize:PROC
			      C EXTERN sfText_setFillColor:PROC
			      C EXTERN sfText_setOutlineColor:PROC
			      C EXTERN sfText_setOutlineThickness:PROC
			      C EXTERN sfText_getLocalBounds:PROC
			      C EXTERN sfText_getGlobalBounds:PROC
			      C EXTERN sfText_setPosition:PROC
			      C 
			      C ; 函數原型 - 顏色相關
			      C EXTERN sfColor_fromRGB:PROC
			      C EXTERN sfColor_fromRGBA:PROC
			      C 
			      C ; 函數原型 - 矩形相關
			      C EXTERN sfRectangleShape_create: PROC
			      C EXTERN sfRectangleShape_setPosition: PROC
			      C EXTERN sfRectangleShape_setSize: PROC
			      C EXTERN sfRectangleShape_setFillColor: PROC
			      C EXTERN sfRectangleShape_setOutlineThickness: PROC
			      C EXTERN sfRenderWindow_drawRectangleShape: PROC
			      C EXTERN sfRectangleShape_destroy: PROC
			      C EXTERN sfRectangleShape_setOutlineColor: PROC
			      C 
			      C EXTERN sfSleep: PROC
			      C 
			      C EXTERN sfClock_create:PROC
			      C EXTERN sfClock_getElapsedTime:PROC
			      C EXTERN sfClock_restart:PROC
			      C EXTERN sfClock_destroy:PROC
			      C 
				include windows.inc
			      C ; windows.inc - 包含 Windows API 函數的定義
			      C 
			      C includelib kernel32.lib
			      C 
			      C extern GetStdHandle@4:PROC
			      C extern CreateFileA@28:PROC
			      C extern WriteFile@20:PROC
			      C extern ReadFile@20:PROC
			      C extern ExitProcess@4:PROC
			      C extern CloseHandle@4:PROC
			      C extern WriteConsoleA@20:PROC
			      C extern GetLastError@0:PROC
			      C 
			      C ; 定義常量
 = 0x80000000		      C GENERIC_READ         EQU 0x80000000
 = 0x00000001		      C FILE_SHARE_READ      EQU 0x00000001
 =-0000000B		      C STD_OUTPUT_HANDLE equ -11
 = 00000003		      C OPEN_EXISTING        EQU 3
 = 0x00000080		      C FILE_ATTRIBUTE_NORMAL EQU 0x00000080
			      C 
			      C 
			      C 

				extern currentPage: DWORD

 = 80000000h			GENERIC_READ equ 80000000h
 = 80h				FILE_ATTRIBUTE_NORMAL equ 80h
 =-0000000B			STD_OUTPUT_HANDLE equ -11

 00000000			.data
				    ; 檔案路徑
 00000000 61 73 73 65 74	    bg_path db "assets/main/bg_genre_2.png", 0
	   73 2F 6D 61 69
	   6E 2F 62 67 5F
	   67 65 6E 72 65
	   5F 32 2E 70 6E
	   67 00
 0000001B 61 73 73 65 74	    red_drum_path db "assets/main/red_note.png", 0
	   73 2F 6D 61 69
	   6E 2F 72 65 64
	   5F 6E 6F 74 65
	   2E 70 6E 67 00
 00000034 61 73 73 65 74	    blue_drum_path db "assets/main/blue_note.png", 0
	   73 2F 6D 61 69
	   6E 2F 62 6C 75
	   65 5F 6E 6F 74
	   65 2E 70 6E 67
	   00
 0000004E 61 73 73 65 74	    selected_music_path db "assets/music/never-gonna-give-you-up-official-music-video.mp3", 0
	   73 2F 6D 75 73
	   69 63 2F 6E 65
	   76 65 72 2D 67
	   6F 6E 6E 61 2D
	   67 69 76 65 2D
	   79 6F 75 2D 75
	   70 2D 6F 66 66
	   69 63 69 61 6C
	   2D 6D 75 73 69
	   63 2D 76 69 64
	   65 6F 2E 6D 70
	   33 00
 0000008C 61 73 73 65 74	    selected_beatmap_path db "assets/music/song1_beatmap.tja", 0
	   73 2F 6D 75 73
	   69 63 2F 73 6F
	   6E 67 31 5F 62
	   65 61 74 6D 61
	   70 2E 74 6A 61
	   00

				    ;常數
 = 00000064			    MAX_DRUMS equ 100 
 = 00000008			    Drum_struct_size equ 8     ; Drum 結構大小
 = 00002710			    MAX_NOTES equ 10000
 = 000003E8			    MAX_LINE_LENGTH equ 1000
 = 00000500			    SCREEN_WIDTH equ 1280
 = 000002D0			    SCREEN_HEIGHT equ 720
 = 0.5				    DRUM_SPEED equ 0.5

				    ; CSFML 物件
 000000AB 00000000		    bgTexture dd 0
 000000AF 00000000		    bgSprite dd 0
 000000B3 00000000		    redDrumTexture dd 0
 000000B7 00000000		    blueDrumTexture dd 0
 000000BB  00000320 [		    drumQueue dd MAX_DRUMS * Drum_struct_size DUP(0)   ; type為 Drum 的Queue
	    00000000
	   ]
 00000D3B 00000000		    bgmusic dd 0

				    ; Drum 結構
 00000D3F 00000000		    Drum_struct dd 0         ; sprite
 00000D43  00000000		                dd 0         ; type(1 = 紅色鼓, 2 = 藍色鼓)

				    ;Queue 相關
 00000D47 00000000		    front dd 0
 00000D4B 00000000		    rear dd 0
 00000D4F 00000000		    qsize dd 0

				    ; 時間相關
 00000D53 00000000		    clock dd 0
 00000D57 00000000		    note_timer REAL4 0.0       ; 音符生成計時器
				    ;note_interval REAL4 1.0    ; 每 1 秒生成一個音符

				    ;譜面相關
 00000D5B 42E34CCD		    bpm dd 113.65 ; 預設 BPM
 00000D5F 00000000		    noteSpawnInterval dd 0.0  ; 音符生成間隔 (毫秒)
 00000D63  00002710 [		    notes dd MAX_NOTES DUP(0) ; 儲存音符數據
	    00000000
	   ]
 0000A9A3 00000000		    totalNotes dd 0

				    ; 視窗設定
 0000A9A7 00000500		    window_videoMode sfVideoMode <1280, 720, 32>
	   000002D0
	   00000020
 0000A9B3 54 61 69 6B 6F	    windowTitle db "Taiko Simulator", 0
	   20 53 69 6D 75
	   6C 61 74 6F 72
	   00
				    ;scrollSpeed REAL4 -0.5      ; 音符滾動速度 (向左移動)

				    ; 顏色常數
 0000A9C3 FF FF FF FF		    whiteColor sfColor <255, 255, 255, 255> ; 白色
 0000A9C7 00 00 00 FF		    blackColor sfColor <0, 0, 0, 255>       ; 黑色

				    ;notePosition sfVector2f <1200.0, 200.0>  ; 音符的 X 和 Y 座標
				    ;movePosition sfVector2f <-0.1, 0.0>

				    ;讀檔相關
 0000A9CB 00000000		    stdout_handle dd 0

 0000A9CF 73 6F 6E 67 31	    filename db "song1_beatmap.tja", 0
	   5F 62 65 61 74
	   6D 61 70 2E 74
	   6A 61 00
 0000A9E1 00000000		    hFile dd 0
 0000A9E5 00000000		    bytesRead dd 0
 0000A9E9  00000400 [		    readBuffer db 1024 dup(0)
	    00
	   ]

 0000ADE9 52 65 61 64 20	    msgReadFail db "Read file failed.", 13, 10, 0
	   66 69 6C 65 20
	   66 61 69 6C 65
	   64 2E 0D 0A 00

 0000ADFD 46 69 6C 65 20	    msgReadSuccess db "File content:", 13, 10, 0
	   63 6F 6E 74 65
	   6E 74 3A 0D 0A
	   00


 00000000			.code

				;播放音樂
 00000000			game_play_music PROC
 00000000  68 0000004E R	    push offset selected_music_path
 00000005  E8 00000000 E	    call sfMusic_createFromFile
 0000000A  83 C4 04		    add esp, 4 
 0000000D  A3 00000D3B R	    mov bgMusic, eax

 00000012  50			    push eax
 00000013  E8 00000000 E	    call sfMusic_play
 00000018  83 C4 04		    add esp, 4
 0000001B  C3			    ret
 0000001C			game_play_music ENDP

				; 讀取文件內容
 0000001C			readFile PROC
 0000001C  8B F4		    mov esi, esp

 0000001E  6A 00		    push 0
 00000020  68 0000A9E5 R	    push offset bytesRead
 00000025  68 00000400		    push 1024
 0000002A  68 0000A9E9 R	    push offset readBuffer
 0000002F  FF 35 0000A9E1 R	    push [hFile]
 00000035  E8 00000000 E	    call ReadFile@20
 0000003A  83 C4 14		    add esp, 20

 0000003D  8B E6		    mov esp, esi
 0000003F  C3			    ret
 00000040			readFile ENDP

				; 載入背景
 00000040			@load_bg PROC
				    ; 創建背景紋理
 00000040  6A 00		    push 0
 00000042  68 00000000 R	    push offset bg_path
 00000047  E8 00000000 E	    call sfTexture_createFromFile
 0000004C  83 C4 08		    add esp, 8
 0000004F  85 C0		    test eax, eax
 00000051  74 2B		    jz @fail_load
 00000053  A3 000000AB R	    mov bgTexture, eax

				    ; 創建背景精靈
 00000058  E8 00000000 E	    call sfSprite_create
 0000005D  85 C0		    test eax, eax
 0000005F  74 1D		    jz @fail_load
 00000061  A3 000000AF R	    mov DWORD PTR [bgSprite], eax

				    ; 設定紋理
 00000066  6A 01		    push 1
 00000068  A1 000000AB R	    mov eax, DWORD PTR [bgTexture]
 0000006D  50			    push eax
 0000006E  8B 0D 000000AF R	    mov ecx, DWORD PTR [bgSprite]
 00000074  51			    push ecx
 00000075  E8 00000000 E	    call sfSprite_setTexture
 0000007A  83 C4 0C		    add esp, 12
 0000007D  C3			    ret

 0000007E			@fail_load:
 0000007E  B8 00000000		    mov eax, 0
 00000083  C3			    ret
 00000084			@load_bg ENDP

				; 載入鼓面紋理
 00000084			@load_drums PROC
 00000084  6A 00		    push 0
 00000086  68 0000001B R	    push offset red_drum_path
 0000008B  E8 00000000 E	    call sfTexture_createFromFile
 00000090  83 C4 08		    add esp, 8
 00000093  85 C0		    test eax, eax
 00000095  74 1E		    jz @fail_load
 00000097  A3 000000B3 R	    mov redDrumTexture, eax

 0000009C  6A 00		    push 0
 0000009E  68 00000034 R	    push offset blue_drum_path
 000000A3  E8 00000000 E	    call sfTexture_createFromFile
 000000A8  83 C4 08		    add esp, 8
 000000AB  85 C0		    test eax, eax
 000000AD  74 06		    jz @fail_load
 000000AF  A3 000000B7 R	    mov blueDrumTexture, eax

 000000B4  C3			    ret
 000000B5			@fail_load:
 000000B5  B8 00000000		    mov eax, 0
 000000BA  C3			    ret
 000000BB			@load_drums ENDP

				; 生成新的音符
 000000BB			@generate_note PROC
				    ; 如果音符超過最大數量，則跳過
				    mov eax, noteCount
main_game_page.asm(171) : error A2006:undefined symbol : noteCount
 000000BB  3D 00000100		    cmp eax, 256   ; 生成最多 256 個音符
 000000C0  73 79		    jae @end

				    ; 創建新的音符精靈
 000000C2  E8 00000000 E	    call sfSprite_create
 000000C7  85 C0		    test eax, eax
 000000C9  74 70		    jz @end

				    ; 將新的音符精靈儲存到陣列中
				    mov esi, noteCount           ; 使用 noteCount 來確保索引有效
main_game_page.asm(181) : error A2006:undefined symbol : noteCount
				    mov DWORD PTR [noteSprites + esi*4], eax
main_game_page.asm(182) : error A2006:undefined symbol : noteSprites

				    ; 設定紅色音符紋理
 000000CB  6A 01		    push 1
 000000CD  A1 000000B3 R	    mov eax, redDrumTexture
 000000D2  50			    push eax
				    mov ecx, DWORD PTR [noteSprites + esi*4]
main_game_page.asm(188) : error A2006:undefined symbol : noteSprites
 000000D3  51			    push ecx
 000000D4  E8 00000000 E	    call sfSprite_setTexture
 000000D9  83 C4 0C		    add esp, 12

				    ; 設定音符初始位置
				    push dword ptr [notePosition+4] ; Y 座標
main_game_page.asm(194) : error A2006:undefined symbol : notePosition
				    push dword ptr [notePosition]   ; X 座標
main_game_page.asm(195) : error A2006:undefined symbol : notePosition
				    mov eax, DWORD PTR [noteSprites + esi*4]
main_game_page.asm(196) : error A2006:undefined symbol : noteSprites
 000000DC  50			    push eax
 000000DD  E8 00000000 E	    call sfSprite_setPosition
 000000E2  83 C4 0C		    add esp, 12

				    ; 更新音符數量
				    inc noteCount
main_game_page.asm(202) : error A2006:undefined symbol : noteCount
 0000013B			@end:
 0000013B  C3			    ret
 0000013C			@generate_note ENDP

				; 更新音符位置
 0000013C			@update_notes PROC
 0000013C  33 F6		    xor esi, esi

 0000013E			@loop_notes:
				    cmp esi, noteCount
main_game_page.asm(212) : error A2006:undefined symbol : noteCount
 0000013E  7D 3D		    jge @end

				    ; 檢查音符是否有效
				    mov eax, DWORD PTR [noteSprites + esi*4]
main_game_page.asm(216) : error A2006:undefined symbol : noteSprites
 00000140  85 C0		    test eax, eax
 00000142  74 36		    jz @next_note

				    ; 移動音符
				    push dword ptr [movePosition+4] ; Y 方向不變
main_game_page.asm(221) : error A2006:undefined symbol : movePosition
				    push scrollSpeed                ; X 方向移動
main_game_page.asm(222) : error A2006:undefined symbol : scrollSpeed
 00000144  50			    push eax
 00000145  E8 00000000 E	    call sfSprite_move
 0000014A  83 C4 0C		    add esp, 12

 0000017A			@next_note:
 0000017A  46			    inc esi
 0000017B  EB C1		    jmp @loop_notes
 0000017D			@end:
 0000017D  C3			    ret
 0000017E			@update_notes ENDP

				; 清理音符
 0000017E			@cleanup_notes PROC
 0000017E  33 F6		    xor esi, esi

 00000180			@loop_cleanup:
				    cmp esi, noteCount
main_game_page.asm(239) : error A2006:undefined symbol : noteCount
 00000180  7D 29		    jge @end

				    ; 檢查音符是否有效
				    mov eax, DWORD PTR [noteSprites + esi*4]
main_game_page.asm(243) : error A2006:undefined symbol : noteSprites
 00000182  85 C0		    test eax, eax
 00000184  74 22		    jz @next_cleanup

				    ; 銷毀音符精靈
 00000186  50			    push eax
 00000187  E8 00000000 E	    call sfSprite_destroy
 0000018C  83 C4 04		    add esp, 4

 000001A8			@next_cleanup:
 000001A8  46			    inc esi
 000001A9  EB D5		    jmp @loop_cleanup
 000001AB			@end:
 000001AB  C3			    ret
 000001AC			@cleanup_notes ENDP

 000001AC			main_game_page PROC window:DWORD

				    ; 載入背景
 000001AF  E8 FFFFFE8C		    call @load_bg
 000001B4  85 C0		    test eax, eax
 000001B6  0F 84 00000109	    jz @exit_program

				    ; 載入鼓面紋理
 000001BC  E8 FFFFFEC3		    call @load_drums
 000001C1  85 C0		    test eax, eax
 000001C3  0F 84 000000FC	    jz @exit_program

				    ;載入音樂
 000001C9  E8 FFFFFE32		    call game_play_music
 000001CE  85 C0		    test eax, eax
 000001D0  0F 84 000000EF	    jz @exit_program

				    ; 載入tja檔
				    push offset notes_path
main_game_page.asm(277) : error A2006:undefined symbol : notes_path
				    call parseNoteChart
main_game_page.asm(278) : error A2006:undefined symbol : parseNoteChart
 000001D6  85 C0		    test eax, eax
 000001D8  0F 84 000000E7	    jz @exit_program

				    ; 初始化計時器
 000001DE  E8 00000000 E	    call sfClock_create
 000001E3  85 C0		    test eax, eax
 000001E5  0F 84 000000DA	    jz @exit_program
 000001EB  A3 00000D53 R	    mov clock, eax

 00000205			@main_loop:

				    ; 檢查視窗是否開啟
 00000205  8B 45 08		    mov eax, window
 00000208  50			    push eax
 00000209  E8 00000000 E	    call sfRenderWindow_isOpen
 0000020E  83 C4 04		    add esp, 4
 00000211  85 C0		    test eax, eax
 00000213  0F 84 000000AC	    je @exit_program

				    ; 更新計時器
 00000219  A1 00000D53 R	    mov eax, clock
 0000021E  50			    push eax
 0000021F  E8 00000000 E	    call sfClock_getElapsedTime
 00000224  83 C4 04		    add esp, 4
 00000227  85 C0		    test eax, eax
 00000229  0F 84 00000096	    jz @exit_program               ; 如果時間返回無效，退出程式

				    ; 提取微秒並轉換為秒數
 0000022F  BB 000F4240		    mov ebx, 1000000  ; 1,000,000 用於將微秒轉換為秒
 00000234  33 D2		    xor edx, edx      ; 清除 edx，準備進行除法操作
 00000236  F7 F3		    div ebx           ; eax = microseconds / 1,000,000 (秒數)
 00000238  F3/ 0F 2A C0		    cvtsi2ss xmm0, eax

				    ; 判斷是否生成新的音符
				    movss xmm1, note_interval
main_game_page.asm(313) : error A2006:undefined symbol : note_interval
 0000023C  0F 2F C1		    comiss xmm0, xmm1
 0000023F  72 16		    jb @skip_generate_note  ; 若音符生成間隔未達一秒，跳過

				    ; 生成音符並重置計時器
 00000241  E8 FFFFFE75		    call @generate_note
 00000246  E8 00000000 E	    call sfClock_restart           ; 重置時鐘

 00000257			@skip_generate_note:
				    ; 更新音符
 00000257  E8 FFFFFEE0		    call @update_notes

				    ; 清除視窗
 0000025C  FF 35 0000A9C7 R	    push blackColor
 00000262  FF 75 08		    push window
 00000265  E8 00000000 E	    call sfRenderWindow_clear
 0000026A  83 C4 08		    add esp, 8

				    ; 繪製背景
 0000026D  6A 00		    push 0
 0000026F  A1 000000AF R	    mov eax, bgSprite
 00000274  50			    push eax
 00000275  8B 4D 08		    mov ecx, window
 00000278  51			    push ecx
 00000279  E8 00000000 E	    call sfRenderWindow_drawSprite
 0000027E  83 C4 0C		    add esp, 12

				    ; 繪製音符
 00000281  33 F6		    xor esi, esi
 00000283			@draw_notes_loop:
				    cmp esi, noteCount
main_game_page.asm(343) : error A2006:undefined symbol : noteCount
 00000283  7D 2F		    jge @end_draw_notes

				    mov eax, DWORD PTR [noteSprites + esi*4]
main_game_page.asm(346) : error A2006:undefined symbol : noteSprites
 00000285  85 C0		    test eax, eax
 00000287  74 28		    jz @next_draw

 00000289  6A 00		    push 0
 0000028B  50			    push eax
 0000028C  8B 4D 08		    mov ecx, window
 0000028F  51			    push ecx
 00000290  E8 00000000 E	    call sfRenderWindow_drawSprite
 00000295  83 C4 0C		    add esp, 12

 000002B1			@next_draw:
 000002B1  46			    inc esi
 000002B2  EB CF		    jmp @draw_notes_loop
 000002B4			@end_draw_notes:

				    ; 顯示視窗
 000002B4  8B 45 08		    mov eax, window
 000002B7  50			    push eax
 000002B8  E8 00000000 E	    call sfRenderWindow_display
 000002BD  83 C4 04		    add esp, 4

 000002C0  E9 FFFFFF40		    jmp @main_loop

 000002C5			@exit_program:
 000002C5  E8 FFFFFEB4		    call @cleanup_notes

 000002CA  FF 35 000000AF R	    push bgSprite
 000002D0  E8 00000000 E	    call sfSprite_destroy
 000002D5  83 C4 04		    add esp, 4

 000002D8  FF 35 000000AB R	    push bgTexture
 000002DE  E8 00000000 E	    call sfTexture_destroy
 000002E3  83 C4 04		    add esp, 4

 000002E6  FF 35 000000B3 R	    push redDrumTexture
 000002EC  E8 00000000 E	    call sfTexture_destroy
 000002F1  83 C4 04		    add esp, 4

 000002F4  FF 35 000000B7 R	    push blueDrumTexture
 000002FA  E8 00000000 E	    call sfTexture_destroy
 000002FF  83 C4 04		    add esp, 4

 00000302  FF 35 00000D53 R	    push clock
 00000308  E8 00000000 E	    call sfClock_destroy
 0000030D  83 C4 04		    add esp, 4

				    ret
 00000312			main_game_page ENDP

				END main_game_page
Microsoft (R) Macro Assembler Version 14.42.34435.0	    12/19/24 03:35:59
main_game_page.asm					     Symbols 2 - 1




Structures and Unions:

                N a m e                  Size
                                         Offset      Type

key  . . . . . . . . . . . . . .	 00000014
  code . . . . . . . . . . . . .	 00000000	 DWord
  alt  . . . . . . . . . . . . .	 00000004	 DWord
  control  . . . . . . . . . . .	 00000008	 DWord
  shift  . . . . . . . . . . . .	 0000000C	 DWord
  system . . . . . . . . . . . .	 00000010	 DWord
mouseButton  . . . . . . . . . .	 0000000C
  button . . . . . . . . . . . .	 00000000	 DWord
  x  . . . . . . . . . . . . . .	 00000004	 DWord
  y  . . . . . . . . . . . . . .	 00000008	 DWord
sfColor  . . . . . . . . . . . .	 00000004
  r  . . . . . . . . . . . . . .	 00000000	 Byte
  g  . . . . . . . . . . . . . .	 00000001	 Byte
  b  . . . . . . . . . . . . . .	 00000002	 Byte
  a  . . . . . . . . . . . . . .	 00000003	 Byte
sfEvent  . . . . . . . . . . . .	 00000030
  _type  . . . . . . . . . . . .	 00000000	 DWord
  _size  . . . . . . . . . . . .	 00000004	 DWord
  mouse  . . . . . . . . . . . .	 00000008	 
  _key . . . . . . . . . . . . .	 00000014	 
  mouseMove  . . . . . . . . . .	 00000028	 QWord
sfFloatRect  . . . . . . . . . .	 00000010
  left . . . . . . . . . . . . .	 00000000	 DWord
  top  . . . . . . . . . . . . .	 00000004	 DWord
  _width . . . . . . . . . . . .	 00000008	 DWord
  height . . . . . . . . . . . .	 0000000C	 DWord
sfTime . . . . . . . . . . . . .	 00000004
  microseconds . . . . . . . . .	 00000000	 DWord
sfVector2f . . . . . . . . . . .	 00000008
  x  . . . . . . . . . . . . . .	 00000000	 DWord
  y  . . . . . . . . . . . . . .	 00000004	 DWord
sfVector2i . . . . . . . . . . .	 00000008
  x  . . . . . . . . . . . . . .	 00000000	 DWord
  y  . . . . . . . . . . . . . .	 00000004	 DWord
sfVideoMode  . . . . . . . . . .	 0000000C
  _width . . . . . . . . . . . .	 00000000	 DWord
  height . . . . . . . . . . . .	 00000004	 DWord
  bpp  . . . . . . . . . . . . .	 00000008	 DWord


Segments and Groups:

                N a m e                 Size     Length   Align   Combine Class

FLAT . . . . . . . . . . . . . .	GROUP
_DATA  . . . . . . . . . . . . .	32 Bit	 0000AE0D Para	  Public  'DATA'	
_TEXT  . . . . . . . . . . . . .	32 Bit	 00000312 Para	  Public  'CODE'	


Procedures, parameters, and locals:

                N a m e                 Type     Value    Attr

@cleanup_notes . . . . . . . . .	P Near	 0000017E _TEXT	Length= 0000002E Public C
  @loop_cleanup  . . . . . . . .	L Near	 00000180 _TEXT	
  @next_cleanup  . . . . . . . .	L Near	 000001A8 _TEXT	
  @end . . . . . . . . . . . . .	L Near	 000001AB _TEXT	
@generate_note . . . . . . . . .	P Near	 000000BB _TEXT	Length= 00000081 Public C
  @end . . . . . . . . . . . . .	L Near	 0000013B _TEXT	
@load_bg . . . . . . . . . . . .	P Near	 00000040 _TEXT	Length= 00000044 Public C
  @fail_load . . . . . . . . . .	L Near	 0000007E _TEXT	
@load_drums  . . . . . . . . . .	P Near	 00000084 _TEXT	Length= 00000037 Public C
  @fail_load . . . . . . . . . .	L Near	 000000B5 _TEXT	
@update_notes  . . . . . . . . .	P Near	 0000013C _TEXT	Length= 00000042 Public C
  @loop_notes  . . . . . . . . .	L Near	 0000013E _TEXT	
  @next_note . . . . . . . . . .	L Near	 0000017A _TEXT	
  @end . . . . . . . . . . . . .	L Near	 0000017D _TEXT	
game_play_music  . . . . . . . .	P Near	 00000000 _TEXT	Length= 0000001C Public C
main_game_page . . . . . . . . .	P Near	 000001AC _TEXT	Length= 00000166 Public C
  window . . . . . . . . . . . .	DWord	 bp + 00000008
  @main_loop . . . . . . . . . .	L Near	 00000205 _TEXT	
  @skip_generate_note  . . . . .	L Near	 00000257 _TEXT	
  @draw_notes_loop . . . . . . .	L Near	 00000283 _TEXT	
  @next_draw . . . . . . . . . .	L Near	 000002B1 _TEXT	
  @end_draw_notes  . . . . . . .	L Near	 000002B4 _TEXT	
  @exit_program  . . . . . . . .	L Near	 000002C5 _TEXT	
readFile . . . . . . . . . . . .	P Near	 0000001C _TEXT	Length= 00000024 Public C


Symbols:

                N a m e                 Type     Value    Attr

@CodeSize  . . . . . . . . . . .	Number	 00000000h   
@DataSize  . . . . . . . . . . .	Number	 00000000h   
@Interface . . . . . . . . . . .	Number	 00000001h   
@Model . . . . . . . . . . . . .	Number	 00000007h   
@code  . . . . . . . . . . . . .	Text   	 _TEXT
@data  . . . . . . . . . . . . .	Text   	 FLAT
@fardata?  . . . . . . . . . . .	Text   	 FLAT
@fardata . . . . . . . . . . . .	Text   	 FLAT
@stack . . . . . . . . . . . . .	Text   	 FLAT
CloseHandle@4  . . . . . . . . .	L Near	 00000000 FLAT	External C
CreateFileA@28 . . . . . . . . .	L Near	 00000000 FLAT	External C
DRUM_SPEED . . . . . . . . . . .	Text   	 0.5
Drum_struct_size . . . . . . . .	Number	 00000008h   
Drum_struct  . . . . . . . . . .	DWord	 00000D3F _DATA	
ExitProcess@4  . . . . . . . . .	L Near	 00000000 FLAT	External C
FILE_ATTRIBUTE_NORMAL  . . . . .	Text   	 80h
FILE_SHARE_READ  . . . . . . . .	Text   	 0x00000001
GENERIC_READ . . . . . . . . . .	Text   	 80000000h
GetLastError@0 . . . . . . . . .	L Near	 00000000 FLAT	External C
GetStdHandle@4 . . . . . . . . .	L Near	 00000000 FLAT	External C
MAX_DRUMS  . . . . . . . . . . .	Number	 00000064h   
MAX_LINE_LENGTH  . . . . . . . .	Number	 000003E8h   
MAX_NOTES  . . . . . . . . . . .	Number	 00002710h   
OPEN_EXISTING  . . . . . . . . .	Number	 00000003h   
ReadFile@20  . . . . . . . . . .	L Near	 00000000 FLAT	External C
SCREEN_HEIGHT  . . . . . . . . .	Number	 000002D0h   
SCREEN_WIDTH . . . . . . . . . .	Number	 00000500h   
STD_OUTPUT_HANDLE  . . . . . . .	Number	 -0000000Bh   
WriteConsoleA@20 . . . . . . . .	L Near	 00000000 FLAT	External C
WriteFile@20 . . . . . . . . . .	L Near	 00000000 FLAT	External C
bgSprite . . . . . . . . . . . .	DWord	 000000AF _DATA	
bgTexture  . . . . . . . . . . .	DWord	 000000AB _DATA	
bg_path  . . . . . . . . . . . .	Byte	 00000000 _DATA	
bgmusic  . . . . . . . . . . . .	DWord	 00000D3B _DATA	
blackColor . . . . . . . . . . .	sfColor	 0000A9C7 _DATA	
blueDrumTexture  . . . . . . . .	DWord	 000000B7 _DATA	
blue_drum_path . . . . . . . . .	Byte	 00000034 _DATA	
bpm  . . . . . . . . . . . . . .	DWord	 00000D5B _DATA	
bytesRead  . . . . . . . . . . .	DWord	 0000A9E5 _DATA	
clock  . . . . . . . . . . . . .	DWord	 00000D53 _DATA	
currentPage  . . . . . . . . . .	DWord	 00000000 FLAT	External C
drumQueue  . . . . . . . . . . .	DWord	 000000BB _DATA	
filename . . . . . . . . . . . .	Byte	 0000A9CF _DATA	
front  . . . . . . . . . . . . .	DWord	 00000D47 _DATA	
hFile  . . . . . . . . . . . . .	DWord	 0000A9E1 _DATA	
msgReadFail  . . . . . . . . . .	Byte	 0000ADE9 _DATA	
msgReadSuccess . . . . . . . . .	Byte	 0000ADFD _DATA	
noteSpawnInterval  . . . . . . .	DWord	 00000D5F _DATA	
note_timer . . . . . . . . . . .	DWord	 00000D57 _DATA	
notes  . . . . . . . . . . . . .	DWord	 00000D63 _DATA	
qsize  . . . . . . . . . . . . .	DWord	 00000D4F _DATA	
readBuffer . . . . . . . . . . .	Byte	 0000A9E9 _DATA	
rear . . . . . . . . . . . . . .	DWord	 00000D4B _DATA	
redDrumTexture . . . . . . . . .	DWord	 000000B3 _DATA	
red_drum_path  . . . . . . . . .	Byte	 0000001B _DATA	
selected_beatmap_path  . . . . .	Byte	 0000008C _DATA	
selected_music_path  . . . . . .	Byte	 0000004E _DATA	
sfClock_create . . . . . . . . .	L Near	 00000000 FLAT	External C
sfClock_destroy  . . . . . . . .	L Near	 00000000 FLAT	External C
sfClock_getElapsedTime . . . . .	L Near	 00000000 FLAT	External C
sfClock_restart  . . . . . . . .	L Near	 00000000 FLAT	External C
sfClose  . . . . . . . . . . . .	Number	 00000004h   
sfColor_fromRGBA . . . . . . . .	L Near	 00000000 FLAT	External C
sfColor_fromRGB  . . . . . . . .	L Near	 00000000 FLAT	External C
sfEvtClosed  . . . . . . . . . .	Number	 00000000h   
sfEvtGainedFocus . . . . . . . .	Number	 00000003h   
sfEvtKeyPressed  . . . . . . . .	Number	 00000005h   
sfEvtKeyReleased . . . . . . . .	Number	 00000006h   
sfEvtLostFocus . . . . . . . . .	Number	 00000002h   
sfEvtMouseButtonPressed  . . . .	Number	 00000009h   
sfEvtMouseButtonReleased . . . .	Number	 0000000Ah   
sfEvtMouseEntered  . . . . . . .	Number	 0000000Ch   
sfEvtMouseLeft . . . . . . . . .	Number	 0000000Dh   
sfEvtMouseMoved  . . . . . . . .	Number	 0000000Bh   
sfEvtMouseWheelMoved . . . . . .	Number	 00000007h   
sfEvtMouseWheelScrolled  . . . .	Number	 00000008h   
sfEvtResized . . . . . . . . . .	Number	 00000001h   
sfEvtTextEntered . . . . . . . .	Number	 00000004h   
sfFalse  . . . . . . . . . . . .	Number	 00000000h   
sfFont_createFromFile  . . . . .	L Near	 00000000 FLAT	External C
sfFont_destroy . . . . . . . . .	L Near	 00000000 FLAT	External C
sfFullscreen . . . . . . . . . .	Number	 00000008h   
sfKeyA . . . . . . . . . . . . .	Number	 00000000h   
sfKeyD . . . . . . . . . . . . .	Number	 00000003h   
sfKeyEnter . . . . . . . . . . .	Number	 0000003Ah   
sfKeyEscape  . . . . . . . . . .	Number	 00000024h   
sfKeyS . . . . . . . . . . . . .	Number	 00000012h   
sfMouseLeft  . . . . . . . . . .	Number	 00000000h   
sfMouseMiddle  . . . . . . . . .	Number	 00000002h   
sfMouseRight . . . . . . . . . .	Number	 00000001h   
sfMusic_createFromFile . . . . .	L Near	 00000000 FLAT	External C
sfMusic_destroy  . . . . . . . .	L Near	 00000000 FLAT	External C
sfMusic_getStatus  . . . . . . .	L Near	 00000000 FLAT	External C
sfMusic_play . . . . . . . . . .	L Near	 00000000 FLAT	External C
sfMusic_setLoop  . . . . . . . .	L Near	 00000000 FLAT	External C
sfMusic_stop . . . . . . . . . .	L Near	 00000000 FLAT	External C
sfNone . . . . . . . . . . . . .	Number	 00000000h   
sfRectangleShape_create  . . . .	L Near	 00000000 FLAT	External C
sfRectangleShape_destroy . . . .	L Near	 00000000 FLAT	External C
sfRectangleShape_setFillColor  .	L Near	 00000000 FLAT	External C
sfRectangleShape_setOutlineColor .	L Near	 00000000 FLAT	External C
sfRectangleShape_setOutlineThickness .	L Near	 00000000 FLAT	External C
sfRectangleShape_setPosition . .	L Near	 00000000 FLAT	External C
sfRectangleShape_setSize . . . .	L Near	 00000000 FLAT	External C
sfRenderWindow_clear . . . . . .	L Near	 00000000 FLAT	External C
sfRenderWindow_close . . . . . .	L Near	 00000000 FLAT	External C
sfRenderWindow_create  . . . . .	L Near	 00000000 FLAT	External C
sfRenderWindow_destroy . . . . .	L Near	 00000000 FLAT	External C
sfRenderWindow_display . . . . .	L Near	 00000000 FLAT	External C
sfRenderWindow_drawRectangleShape 	L Near	 00000000 FLAT	External C
sfRenderWindow_drawSprite  . . .	L Near	 00000000 FLAT	External C
sfRenderWindow_drawText  . . . .	L Near	 00000000 FLAT	External C
sfRenderWindow_isOpen  . . . . .	L Near	 00000000 FLAT	External C
sfRenderWindow_pollEvent . . . .	L Near	 00000000 FLAT	External C
sfResize . . . . . . . . . . . .	Number	 00000002h   
sfSleep  . . . . . . . . . . . .	L Near	 00000000 FLAT	External C
sfSprite_create  . . . . . . . .	L Near	 00000000 FLAT	External C
sfSprite_destroy . . . . . . . .	L Near	 00000000 FLAT	External C
sfSprite_move  . . . . . . . . .	L Near	 00000000 FLAT	External C
sfSprite_setOrigin . . . . . . .	L Near	 00000000 FLAT	External C
sfSprite_setPosition . . . . . .	L Near	 00000000 FLAT	External C
sfSprite_setTexture  . . . . . .	L Near	 00000000 FLAT	External C
sfText_create  . . . . . . . . .	L Near	 00000000 FLAT	External C
sfText_destroy . . . . . . . . .	L Near	 00000000 FLAT	External C
sfText_getGlobalBounds . . . . .	L Near	 00000000 FLAT	External C
sfText_getLocalBounds  . . . . .	L Near	 00000000 FLAT	External C
sfText_setCharacterSize  . . . .	L Near	 00000000 FLAT	External C
sfText_setFillColor  . . . . . .	L Near	 00000000 FLAT	External C
sfText_setFont . . . . . . . . .	L Near	 00000000 FLAT	External C
sfText_setOutlineColor . . . . .	L Near	 00000000 FLAT	External C
sfText_setOutlineThickness . . .	L Near	 00000000 FLAT	External C
sfText_setPosition . . . . . . .	L Near	 00000000 FLAT	External C
sfText_setString . . . . . . . .	L Near	 00000000 FLAT	External C
sfTexture_createFromFile . . . .	L Near	 00000000 FLAT	External C
sfTexture_destroy  . . . . . . .	L Near	 00000000 FLAT	External C
sfTitlebar . . . . . . . . . . .	Number	 00000001h   
sfTrue . . . . . . . . . . . . .	Number	 00000001h   
stdout_handle  . . . . . . . . .	DWord	 0000A9CB _DATA	
totalNotes . . . . . . . . . . .	DWord	 0000A9A3 _DATA	
whiteColor . . . . . . . . . . .	sfColor	 0000A9C3 _DATA	
windowTitle  . . . . . . . . . .	Byte	 0000A9B3 _DATA	
window_videoMode . . . . . . . .	sfVideoMode  0000A9A7 _DATA	

	   0 Warnings
	   19 Errors
