Microsoft (R) Macro Assembler Version 14.41.34120.0	    12/13/24 20:32:26
select_music_page.asm					     Page 1 - 1


				.686P
				.XMM
				.model flat, c
				include csfml.inc
			      C ; CSFML.INC - SFML Definitions for x86 Assembly
			      C ; 使用 MASM 語法
			      C 
			      C includelib csfml-audio.lib
			      C includelib csfml-graphics.lib
			      C includelib csfml-system.lib
			      C includelib csfml-window.lib
			      C 
			      C 
			      C ; sfBool 定義
 = 00000000		      C sfFalse     equ 0
 = 00000001		      C sfTrue      equ 1
			      C 
			      C ; sfEventType 定義
 = 00000000		      C sfEvtClosed               equ 0
 = 00000001		      C sfEvtResized              equ 1
 = 00000002		      C sfEvtLostFocus            equ 2
 = 00000003		      C sfEvtGainedFocus          equ 3
 = 00000004		      C sfEvtTextEntered          equ 4
 = 00000005		      C sfEvtKeyPressed           equ 5
 = 00000006		      C sfEvtKeyReleased          equ 6
 = 00000007		      C sfEvtMouseWheelMoved      equ 7
 = 00000008		      C sfEvtMouseWheelScrolled   equ 8
 = 00000009		      C sfEvtMouseButtonPressed   equ 9
 = 0000000A		      C sfEvtMouseButtonReleased  equ 10
 = 0000000B		      C sfEvtMouseMoved           equ 11
 = 0000000C		      C sfEvtMouseEntered         equ 12
 = 0000000D		      C sfEvtMouseLeft            equ 13
			      C 
			      C ; sfMouseButton 定義
 = 00000000		      C sfMouseLeft   equ 0
 = 00000001		      C sfMouseRight  equ 1
 = 00000002		      C sfMouseMiddle equ 2
			      C 
			      C ; sfKey 定義
 = 0000003A		      C sfKeyEnter    equ 58
			      C 
			      C ; 視窗風格定義
 = 00000000		      C sfNone       equ 0
 = 00000001		      C sfTitlebar   equ 1
 = 00000002		      C sfResize     equ 2
 = 00000004		      C sfClose      equ 4
 = 00000008		      C sfFullscreen equ 8
			      C 
			      C ; 結構體定義
 00000008		      C sfVector2f STRUCT
 00000000  00000000	      C     x REAL4 ?
 00000004  00000000	      C     y REAL4 ?
			      C sfVector2f ENDS
			      C 
 00000008		      C sfVector2i STRUCT
 00000000  00000000	      C     x SDWORD ?
 00000004  00000000	      C     y SDWORD ?
			      C sfVector2i ENDS
			      C 
 0000000C		      C sfVideoMode STRUCT
 00000000  00000000	      C     _width  DWORD ?
 00000004  00000000	      C     height DWORD ?
 00000008  00000000	      C     bpp    DWORD ?
			      C sfVideoMode ENDS
			      C 
 00000004		      C sfColor STRUCT
 00000000  00		      C     r BYTE ?
 00000001  00		      C     g BYTE ?
 00000002  00		      C     b BYTE ?
 00000003  00		      C     a BYTE ?
			      C sfColor ENDS
			      C 
 00000010		      C sfFloatRect STRUCT
 00000000  00000000	      C     left   REAL4 ?
 00000004  00000000	      C     top    REAL4 ?
 00000008  00000000	      C     _width  REAL4 ?
 0000000C  00000000	      C     height REAL4 ?
			      C sfFloatRect ENDS
			      C 
 0000000C		      C mouseButton STRUCT
 00000000  00000000	      C     button DWORD ?
 00000004  00000000	      C     x DWORD ?
 00000008  00000000	      C     y DWORD ?
			      C mouseButton ENDS
			      C 
 00000014		      C key STRUCT
 00000000  00000000	      C     code DWORD ?
 00000004  00000000	      C     alt DWORD ?
 00000008  00000000	      C     control DWORD ?
 0000000C  00000000	      C     shift DWORD ?
 00000010  00000000	      C     system DWORD ?
			      C key ENDS
			      C 
			      C ; 事件結構體
 00000028		      C sfEvent STRUCT
 00000000  00000000	      C     _type DWORD ?
 00000004  00000000	      C     _size DWORD ?
 00000008  00000000	      C     mouse mouseButton <>
	   00000000
	   00000000
 00000014  00000000	      C     _key key <>
	   00000000
	   00000000
	   00000000
	   00000000
			      C sfEvent ENDS
			      C 
			      C ; 函數原型 - 視窗相關
			      C EXTERN sfRenderWindow_create:PROC
			      C EXTERN sfRenderWindow_destroy:PROC
			      C EXTERN sfRenderWindow_close:PROC
			      C EXTERN sfRenderWindow_isOpen:PROC
			      C EXTERN sfRenderWindow_clear:PROC
			      C EXTERN sfRenderWindow_display:PROC
			      C EXTERN sfRenderWindow_pollEvent:PROC
			      C EXTERN sfRenderWindow_drawSprite:PROC
			      C EXTERN sfRenderWindow_drawText:PROC
			      C 
			      C ; 函數原型 - 紋理相關
			      C EXTERN sfTexture_createFromFile:PROC
			      C EXTERN sfTexture_destroy:PROC
			      C 
			      C ; 函數原型 - 精靈相關
			      C EXTERN sfSprite_create:PROC
			      C EXTERN sfSprite_destroy:PROC
			      C EXTERN sfSprite_setTexture:PROC
			      C 
			      C ; 函數原型 - 音樂相關
			      C EXTERN sfMusic_createFromFile:PROC
			      C EXTERN sfMusic_destroy:PROC
			      C EXTERN sfMusic_play:PROC
			      C EXTERN sfMusic_setLoop:PROC
			      C 
			      C ; 函數原型 - 文字相關
			      C EXTERN sfFont_createFromFile:PROC
			      C EXTERN sfFont_destroy:PROC
			      C EXTERN sfText_create:PROC
			      C EXTERN sfText_destroy:PROC
			      C EXTERN sfText_setFont:PROC
			      C EXTERN sfText_setString:PROC
			      C EXTERN sfText_setCharacterSize:PROC
			      C EXTERN sfText_setFillColor:PROC
			      C EXTERN sfText_setOutlineColor:PROC
			      C EXTERN sfText_setOutlineThickness:PROC
			      C EXTERN sfText_getLocalBounds:PROC
			      C EXTERN sfText_getGlobalBounds:PROC
			      C EXTERN sfText_setPosition:PROC
			      C 
			      C ; 函數原型 - 顏色相關
			      C EXTERN sfColor_fromRGB:PROC
			      C EXTERN sfColor_fromRGBA:PROC
			      C 

				EXTERN sfRectangleShape_create: PROC
				EXTERN sfRectangleShape_setPosition: PROC
				EXTERN sfRectangleShape_setSize: PROC
				EXTERN sfRectangleShape_setFillColor: PROC
				EXTERN sfRectangleShape_setOutlineThickness: PROC
				EXTERN sfRenderWindow_drawRectangleShape: PROC
				EXTERN sfRectangleShape_destroy: PROC
				EXTERN sfRectangleShape_setOutlineColor: PROC

				extern currentPage: DWORD

 = 00000000			BUTTON_STATE_NORMAL equ 0
 = 00000001			BUTTON_STATE_PRESSED equ 1

 00000008			Button STRUCT
 00000000  00000000			shape dd ?
 00000004  00000000			state dd ?
				Button ENDS

 00000000			.data
				    ; 檔案路徑
 00000000 43 3A 5C 55 73	    bg_path db "C:\Users\User\source\repos\TaikoSimulator\TaikoSimulator\assets\main\taiko_main.jpg", 0
	   65 72 73 5C 55
	   73 65 72 5C 73
	   6F 75 72 63 65
	   5C 72 65 70 6F
	   73 5C 54 61 69
	   6B 6F 53 69 6D
	   75 6C 61 74 6F
	   72 5C 54 61 69
	   6B 6F 53 69 6D
	   75 6C 61 74 6F
	   72 5C 61 73 73
	   65 74 73 5C 6D
	   61 69 6E 5C 74
	   61 69 6B 6F 5F
	   6D 61 69 6E 2E
	   6A 70 67 00
 00000054 43 3A 5C 55 73	    font_path db "C:\Users\User\source\repos\TaikoSimulator\TaikoSimulator\assets\main\Taiko_No_Tatsujin_Official_Font.ttf", 0
	   65 72 73 5C 55
	   73 65 72 5C 73
	   6F 75 72 63 65
	   5C 72 65 70 6F
	   73 5C 54 61 69
	   6B 6F 53 69 6D
	   75 6C 61 74 6F
	   72 5C 54 61 69
	   6B 6F 53 69 6D
	   75 6C 61 74 6F
	   72 5C 61 73 73
	   65 74 73 5C 6D
	   61 69 6E 5C 54
	   61 69 6B 6F 5F
	   4E 6F 5F 54 61
	   74 73 75 6A 69
	   6E 5F 4F 66 66
	   69 63 69 61 6C
	   5F 46 6F 6E 74
	   2E 74 74 66 00
				    
				    ; 視窗標題
 000000BD 53 6F 6E 67 20	    window_title db "Song Selection", 0
	   53 65 6C 65 63
	   74 69 6F 6E 00
				    
				    ; 按鈕文字
 000000CC 53 6F 6E 67 20	    song1_text db "Song 1", 0
	   31 00
 000000D3 53 6F 6E 67 20	    song2_text db "Song 2", 0
	   32 00
 000000DA 53 6F 6E 67 20	    song3_text db "Song 3", 0
	   33 00
 000000E1 49 6E 74 72 6F	    instruction_text db "Introduction", 0
	   64 75 63 74 69
	   6F 6E 00
				    
				    ; SFML物件
 000000EE 00000000		    bgTexture dd 0
 000000F2 00000000		    bgSprite dd 0
 000000F6 00000000		    font dd 0
				    
				    ; 按鈕物件
 000000FA 00000000		    button1_shape Button <>
	   00000000
 00000102 00000000		    button2_shape Button <>
	   00000000
 0000010A 00000000		    button3_shape Button <>
	   00000000
				    
				    ; 按鈕文字物件
 00000112 00000000		    text1 dd 0
 00000116 00000000		    text2 dd 0
 0000011A 00000000		    text3 dd 0
				    
				    ; 說明框物件
 0000011E 00000000		    instruction_box dd 0
 00000122 00000000		    instruction_text_obj dd 0
				    
				    ; 事件結構
 00000126 00000000		    event sfEvent <>
	   00000000
	   00000000
	   00000000
	   00000000
	   00000000
	   00000000
	   00000000
	   00000000
	   00000000
				    
				    ; 常數
 0000014E 43C80000		    button_x REAL4 400.0
 00000152 43160000		    button1_y REAL4 150.0
 00000156 437A0000		    button2_y REAL4 250.0
 0000015A 43AF0000		    button3_y REAL4 350.0
 0000015E 43F00000		    button_width REAL4 480.0
 00000162 42700000		    button_height REAL4 60.0
 00000166 40400000		    outline_thickness REAL4 3.0

				    ; 顏色常數
 0000016A A9 A9 A9 FF		    gray_color sfColor <169, 169, 169, 255>
 0000016E 69 69 69 FF		    dark_gray_color sfColor <105, 105, 105, 255>
 00000172 C0 C0 C0 FF		    light_gray_color sfColor <192, 192, 192, 255>
 00000176 80 80 80 FF		    darker_gray_color sfColor <128, 128, 128, 255>
 0000017A FF EF C6 FF		    beige_color sfColor <255, 239, 198, 255>
 0000017E 00 00 00 FF		    black_color sfColor <0, 0, 0, 255>

 00000000			.code

				; 載入背景
 00000000			@load_background PROC
 00000000  6A 00		    push 0
 00000002  68 00000000 R	    push offset bg_path
 00000007  E8 00000000 E	    call sfTexture_createFromFile
 0000000C  83 C4 08		    add esp, 8
 0000000F  A3 000000EE R	    mov bgTexture, eax
				    
 00000014  E8 00000000 E	    call sfSprite_create
 00000019  A3 000000F2 R	    mov DWORD PTR [bgSprite], eax
				    
 0000001E  6A 01		    push 1
 00000020  FF 35 000000EE R	    push dword ptr [bgTexture]
 00000026  FF 35 000000F2 R	    push dword ptr [bgSprite]
 0000002C  E8 00000000 E	    call sfSprite_setTexture
 00000031  83 C4 0C		    add esp, 12
 00000034  C3			    ret
 00000035			@load_background ENDP

				; 創建按鈕
 00000035			create_button PROC
				    
 00000035  55			    push ebp
 00000036  8B EC		    mov ebp, esp

				    ; 呼叫函數創建矩形
 00000038  E8 00000000 E	    call sfRectangleShape_create
 0000003D  8B F0		    mov esi, eax  ; 儲存矩形物件

				    ; 創建位置向量 !程式位置存在ebp+4
 0000003F  FF 75 0C		    push dword ptr [ebp+12] ; y 座標
 00000042  FF 75 08		    push dword ptr [ebp+8]  ; x 座標
 00000045  56			    push esi
 00000046  E8 00000000 E	    call sfRectangleShape_setPosition
 0000004B  83 C4 0C		    add esp, 12

				    ; 設定大小
 0000004E  FF 75 14		    push dword ptr [ebp+20] ; 高度
 00000051  FF 75 10		    push dword ptr [ebp+16] ; 寬度
 00000054  56			    push esi
 00000055  E8 00000000 E	    call sfRectangleShape_setSize
 0000005A  83 C4 0C		    add esp, 12

				    ; 設定填充顏色
 0000005D  FF 35 0000016A R	    push gray_color
 00000063  56			    push esi
 00000064  E8 00000000 E	    call sfRectangleShape_setFillColor
 00000069  83 C4 08		    add esp, 8

				    ; 設定邊框顏色
 0000006C  FF 35 0000016E R	    push dark_gray_color
 00000072  56			    push esi
 00000073  E8 00000000 E	    call sfRectangleShape_setOutlineColor
 00000078  83 C4 08		    add esp, 8

				    ; 設定邊框厚度
				    
 0000007B  83 EC 04		    sub esp, 4
 0000007E  F3/ 0F 10 05		    movss xmm0, dword ptr [outline_thickness]
	   00000166 R
 00000086  F3/ 0F 11 04 24	    movss dword ptr [esp], xmm0
 0000008B  56			    push esi
 0000008C  E8 00000000 E	    call sfRectangleShape_setOutlineThickness
 00000091  83 C4 08		    add esp, 8

				    ; 返回按鈕物件
 00000094  8B C6		    mov eax, esi

 00000096  5D			    pop ebp
 00000097  C3			    ret
 00000098			create_button ENDP

				; 初始化按鈕
 00000098			init_buttons PROC
				    ; 初始化按鈕1
 00000098  51			    push ecx
 00000099  F3/ 0F 10 05		    movss xmm0, dword ptr [button_height]
	   00000162 R
 000000A1  F3/ 0F 11 04 24	    movss dword ptr [esp], xmm0

 000000A6  51			    push ecx
 000000A7  F3/ 0F 10 05		    movss xmm0, dword ptr [button_width]
	   0000015E R
 000000AF  F3/ 0F 11 04 24	    movss dword ptr [esp], xmm0

 000000B4  51			    push ecx
 000000B5  F3/ 0F 10 05		    movss xmm0, dword ptr [button1_y]
	   00000152 R
 000000BD  F3/ 0F 11 04 24	    movss dword ptr [esp], xmm0

 000000C2  51			    push ecx
 000000C3  F3/ 0F 10 05		    movss xmm0, dword ptr [button_x]
	   0000014E R
 000000CB  F3/ 0F 11 04 24	    movss dword ptr [esp], xmm0

 000000D0  E8 FFFFFF60		    call create_button
 000000D5  83 C4 10		    add esp, 16
 000000D8  A3 000000FA R	    mov dword ptr [button1_shape], eax
 000000DD  C7 05 000000FE R	    mov dword ptr [button1_shape.state], BUTTON_STATE_NORMAL
	   00000000
				    ; 初始化按鈕2
 000000E7  51			    push ecx
 000000E8  F3/ 0F 10 05		    movss xmm0, dword ptr [button_height]
	   00000162 R
 000000F0  F3/ 0F 11 04 24	    movss dword ptr [esp], xmm0

 000000F5  51			    push ecx
 000000F6  F3/ 0F 10 05		    movss xmm0, dword ptr [button_width]
	   0000015E R
 000000FE  F3/ 0F 11 04 24	    movss dword ptr [esp], xmm0

 00000103  51			    push ecx
 00000104  F3/ 0F 10 05		    movss xmm0, dword ptr [button2_y]
	   00000156 R
 0000010C  F3/ 0F 11 04 24	    movss dword ptr [esp], xmm0

 00000111  51			    push ecx
 00000112  F3/ 0F 10 05		    movss xmm0, dword ptr [button_x]
	   0000014E R
 0000011A  F3/ 0F 11 04 24	    movss dword ptr [esp], xmm0

 0000011F  E8 FFFFFF11		    call create_button
 00000124  83 C4 10		    add esp, 16
 00000127  A3 00000102 R	    mov dword ptr [button2_shape], eax
 0000012C  C7 05 00000106 R	    mov dword ptr [button2_shape.state], BUTTON_STATE_NORMAL
	   00000000

				    ; 初始化按鈕3
 00000136  51			    push ecx
 00000137  F3/ 0F 10 05		    movss xmm0, dword ptr [button_height]
	   00000162 R
 0000013F  F3/ 0F 11 04 24	    movss dword ptr [esp], xmm0

 00000144  51			    push ecx
 00000145  F3/ 0F 10 05		    movss xmm0, dword ptr [button_width]
	   0000015E R
 0000014D  F3/ 0F 11 04 24	    movss dword ptr [esp], xmm0

 00000152  51			    push ecx
 00000153  F3/ 0F 10 05		    movss xmm0, dword ptr [button3_y]
	   0000015A R
 0000015B  F3/ 0F 11 04 24	    movss dword ptr [esp], xmm0

 00000160  51			    push ecx
 00000161  F3/ 0F 10 05		    movss xmm0, dword ptr [button_x]
	   0000014E R
 00000169  F3/ 0F 11 04 24	    movss dword ptr [esp], xmm0

 0000016E  E8 FFFFFEC2		    call create_button
 00000173  83 C4 10		    add esp, 16
 00000176  A3 0000010A R	    mov dword ptr [button3_shape], eax
 0000017B  C7 05 0000010E R	    mov dword ptr [button3_shape.state], BUTTON_STATE_NORMAL
	   00000000

 00000185  C3			    ret
 00000186			init_buttons ENDP

				; 釋放資源
 00000186			cleanup PROC

 00000186  FF 35 000000F2 R	    push bgSprite
 0000018C  E8 00000000 E	    call sfSprite_destroy
 00000191  83 C4 04		    add esp, 4

 00000194  FF 35 000000EE R	    push bgTexture
 0000019A  E8 00000000 E	    call sfTexture_destroy
 0000019F  83 C4 04		    add esp, 4
				    
 000001A2  FF 35 000000FA R	    push dword ptr [button1_shape]
 000001A8  E8 00000000 E	    call sfRectangleShape_destroy
 000001AD  83 C4 04		    add esp, 4
				    
 000001B0  FF 35 00000102 R	    push dword ptr [button2_shape]
 000001B6  E8 00000000 E	    call sfRectangleShape_destroy
 000001BB  83 C4 04		    add esp, 4
				    
 000001BE  FF 35 0000010A R	    push dword ptr [button3_shape]
 000001C4  E8 00000000 E	    call sfRectangleShape_destroy
 000001C9  83 C4 04		    add esp, 4
				    
 000001CC  C3			    ret
 000001CD			cleanup ENDP


 000001CD			select_music_page PROC window:DWORD
				   ; 載入背景
 000001D0  E8 FFFFFE2B		    call @load_background
 000001D5  85 C0		    test eax, eax
 000001D7  0F 84 000000BD	    jz @exit_program

				    ; 初始化按鈕
 000001DD  E8 FFFFFEB6		    call init_buttons

 000001E2			@main_loop:
				    
 000001E2  8B 45 08		    mov eax, DWORD PTR [window]
 000001E5  50			    push eax
 000001E6  E8 00000000 E	    call sfRenderWindow_isOpen
 000001EB  83 C4 04		    add esp, 4
 000001EE  85 C0		    test eax, eax
 000001F0  0F 84 000000A4	    je @exit_program

 000001F6			    @event_loop:
				        ; 事件處理
 000001F6  8D 35 00000126 R	        lea esi, event
 000001FC  56			        push esi
 000001FD  8B 45 08		        mov eax, window
 00000200  50			        push eax
 00000201  E8 00000000 E	        call sfRenderWindow_pollEvent
 00000206  83 C4 08		        add esp, 8
 00000209  85 C0		        test eax, eax
 0000020B  74 11		        je @render_window
				    
				        ; 檢查關閉事件
 0000020D  83 3E 00		        cmp dword ptr [esi].sfEvent._type, sfEvtClosed
 00000210  74 7E		        je @end
				    
				        ; 檢查滑鼠點擊
 00000212  83 3E 09		        cmp dword ptr [esi].sfEvent._type, sfEvtMouseButtonPressed
 00000215  74 07		        je @render_window
				    
				        ; 檢查鍵盤事件
 00000217  83 3E 05		        cmp dword ptr [esi].sfEvent._type, sfEvtKeyPressed
 0000021A  74 02		        je @render_window

 0000021C  EB D8		        jmp @event_loop
				    
 0000021E			@render_window: 
				    ; 清除視窗
 0000021E  FF 35 0000017E R	    push black_color
 00000224  FF 75 08		    push window
 00000227  E8 00000000 E	    call sfRenderWindow_clear
 0000022C  83 C4 08		    add esp, 8
				    
				    ; 繪製背景
 0000022F  6A 00		    push 0
 00000231  A1 000000F2 R	    mov eax, DWORD PTR [bgSprite]
 00000236  50			    push eax
 00000237  8B 4D 08		    mov ecx, DWORD PTR [window]
 0000023A  51			    push ecx
 0000023B  E8 00000000 E	    call sfRenderWindow_drawSprite
 00000240  83 C4 0C		    add esp, 12

 00000243  6A 00		    push 0
 00000245  A1 000000FA R	    mov eax, DWORD PTR [button1_shape]
 0000024A  50			    push eax
 0000024B  8B 4D 08		    mov ecx, DWORD PTR [window]
 0000024E  51			    push ecx
 0000024F  E8 00000000 E	    call sfRenderWindow_drawRectangleShape
 00000254  83 C4 0C		    add esp, 12

 00000257  6A 00		    push 0
 00000259  A1 00000102 R	    mov eax, DWORD PTR [button2_shape]
 0000025E  50			    push eax
 0000025F  8B 4D 08		    mov ecx, DWORD PTR [window]
 00000262  51			    push ecx
 00000263  E8 00000000 E	    call sfRenderWindow_drawRectangleShape
 00000268  83 C4 0C		    add esp, 12
				    
 0000026B  6A 00		    push 0
 0000026D  A1 0000010A R	    mov eax, DWORD PTR [button3_shape]
 00000272  50			    push eax
 00000273  8B 4D 08		    mov ecx, DWORD PTR [window]
 00000276  51			    push ecx
 00000277  E8 00000000 E	    call sfRenderWindow_drawRectangleShape
 0000027C  83 C4 0C		    add esp, 12

				    ; 顯示視窗
 0000027F  8B 45 08		    mov eax, DWORD PTR [window]
 00000282  50			    push eax
 00000283  E8 00000000 E	    call sfRenderWindow_display
 00000288  83 C4 04		    add esp, 4

 0000028B  E9 FFFFFF52		    jmp @main_loop

 00000290			@end:
 00000290  C7 05 00000000 E	    mov DWORD PTR [currentPage], -1
	   FFFFFFFF

 0000029A			@exit_program:
 0000029A  E8 FFFFFEE7		    call cleanup
 0000029F  33 C0		    xor eax, eax
				    ret

 000002A3			select_music_page ENDP

				END select_music_page
Microsoft (R) Macro Assembler Version 14.41.34120.0	    12/13/24 20:32:26
select_music_page.asm					     Symbols 2 - 1




Structures and Unions:

                N a m e                  Size
                                         Offset      Type

Button . . . . . . . . . . . . .	 00000008
  shape  . . . . . . . . . . . .	 00000000	 DWord
  state  . . . . . . . . . . . .	 00000004	 DWord
key  . . . . . . . . . . . . . .	 00000014
  code . . . . . . . . . . . . .	 00000000	 DWord
  alt  . . . . . . . . . . . . .	 00000004	 DWord
  control  . . . . . . . . . . .	 00000008	 DWord
  shift  . . . . . . . . . . . .	 0000000C	 DWord
  system . . . . . . . . . . . .	 00000010	 DWord
mouseButton  . . . . . . . . . .	 0000000C
  button . . . . . . . . . . . .	 00000000	 DWord
  x  . . . . . . . . . . . . . .	 00000004	 DWord
  y  . . . . . . . . . . . . . .	 00000008	 DWord
sfColor  . . . . . . . . . . . .	 00000004
  r  . . . . . . . . . . . . . .	 00000000	 Byte
  g  . . . . . . . . . . . . . .	 00000001	 Byte
  b  . . . . . . . . . . . . . .	 00000002	 Byte
  a  . . . . . . . . . . . . . .	 00000003	 Byte
sfEvent  . . . . . . . . . . . .	 00000028
  _type  . . . . . . . . . . . .	 00000000	 DWord
  _size  . . . . . . . . . . . .	 00000004	 DWord
  mouse  . . . . . . . . . . . .	 00000008	 
  _key . . . . . . . . . . . . .	 00000014	 
sfFloatRect  . . . . . . . . . .	 00000010
  left . . . . . . . . . . . . .	 00000000	 DWord
  top  . . . . . . . . . . . . .	 00000004	 DWord
  _width . . . . . . . . . . . .	 00000008	 DWord
  height . . . . . . . . . . . .	 0000000C	 DWord
sfVector2f . . . . . . . . . . .	 00000008
  x  . . . . . . . . . . . . . .	 00000000	 DWord
  y  . . . . . . . . . . . . . .	 00000004	 DWord
sfVector2i . . . . . . . . . . .	 00000008
  x  . . . . . . . . . . . . . .	 00000000	 DWord
  y  . . . . . . . . . . . . . .	 00000004	 DWord
sfVideoMode  . . . . . . . . . .	 0000000C
  _width . . . . . . . . . . . .	 00000000	 DWord
  height . . . . . . . . . . . .	 00000004	 DWord
  bpp  . . . . . . . . . . . . .	 00000008	 DWord


Segments and Groups:

                N a m e                 Size     Length   Align   Combine Class

FLAT . . . . . . . . . . . . . .	GROUP
_DATA  . . . . . . . . . . . . .	32 Bit	 00000182 Para	  Public  'DATA'	
_TEXT  . . . . . . . . . . . . .	32 Bit	 000002A3 Para	  Public  'CODE'	


Procedures, parameters, and locals:

                N a m e                 Type     Value    Attr

@load_background . . . . . . . .	P Near	 00000000 _TEXT	Length= 00000035 Public C
cleanup  . . . . . . . . . . . .	P Near	 00000186 _TEXT	Length= 00000047 Public C
create_button  . . . . . . . . .	P Near	 00000035 _TEXT	Length= 00000063 Public C
init_buttons . . . . . . . . . .	P Near	 00000098 _TEXT	Length= 000000EE Public C
select_music_page  . . . . . . .	P Near	 000001CD _TEXT	Length= 000000D6 Public C
  window . . . . . . . . . . . .	DWord	 bp + 00000008
  @main_loop . . . . . . . . . .	L Near	 000001E2 _TEXT	
  @event_loop  . . . . . . . . .	L Near	 000001F6 _TEXT	
  @render_window . . . . . . . .	L Near	 0000021E _TEXT	
  @end . . . . . . . . . . . . .	L Near	 00000290 _TEXT	
  @exit_program  . . . . . . . .	L Near	 0000029A _TEXT	


Symbols:

                N a m e                 Type     Value    Attr

@CodeSize  . . . . . . . . . . .	Number	 00000000h   
@DataSize  . . . . . . . . . . .	Number	 00000000h   
@Interface . . . . . . . . . . .	Number	 00000001h   
@Model . . . . . . . . . . . . .	Number	 00000007h   
@code  . . . . . . . . . . . . .	Text   	 _TEXT
@data  . . . . . . . . . . . . .	Text   	 FLAT
@fardata?  . . . . . . . . . . .	Text   	 FLAT
@fardata . . . . . . . . . . . .	Text   	 FLAT
@stack . . . . . . . . . . . . .	Text   	 FLAT
BUTTON_STATE_NORMAL  . . . . . .	Number	 00000000h   
BUTTON_STATE_PRESSED . . . . . .	Number	 00000001h   
beige_color  . . . . . . . . . .	sfColor	 0000017A _DATA	
bgSprite . . . . . . . . . . . .	DWord	 000000F2 _DATA	
bgTexture  . . . . . . . . . . .	DWord	 000000EE _DATA	
bg_path  . . . . . . . . . . . .	Byte	 00000000 _DATA	
black_color  . . . . . . . . . .	sfColor	 0000017E _DATA	
button1_shape  . . . . . . . . .	Button	 000000FA _DATA	
button1_y  . . . . . . . . . . .	DWord	 00000152 _DATA	
button2_shape  . . . . . . . . .	Button	 00000102 _DATA	
button2_y  . . . . . . . . . . .	DWord	 00000156 _DATA	
button3_shape  . . . . . . . . .	Button	 0000010A _DATA	
button3_y  . . . . . . . . . . .	DWord	 0000015A _DATA	
button_height  . . . . . . . . .	DWord	 00000162 _DATA	
button_width . . . . . . . . . .	DWord	 0000015E _DATA	
button_x . . . . . . . . . . . .	DWord	 0000014E _DATA	
currentPage  . . . . . . . . . .	DWord	 00000000 FLAT	External C
dark_gray_color  . . . . . . . .	sfColor	 0000016E _DATA	
darker_gray_color  . . . . . . .	sfColor	 00000176 _DATA	
event  . . . . . . . . . . . . .	sfEvent	 00000126 _DATA	
font_path  . . . . . . . . . . .	Byte	 00000054 _DATA	
font . . . . . . . . . . . . . .	DWord	 000000F6 _DATA	
gray_color . . . . . . . . . . .	sfColor	 0000016A _DATA	
instruction_box  . . . . . . . .	DWord	 0000011E _DATA	
instruction_text_obj . . . . . .	DWord	 00000122 _DATA	
instruction_text . . . . . . . .	Byte	 000000E1 _DATA	
light_gray_color . . . . . . . .	sfColor	 00000172 _DATA	
outline_thickness  . . . . . . .	DWord	 00000166 _DATA	
sfClose  . . . . . . . . . . . .	Number	 00000004h   
sfColor_fromRGBA . . . . . . . .	L Near	 00000000 FLAT	External C
sfColor_fromRGB  . . . . . . . .	L Near	 00000000 FLAT	External C
sfEvtClosed  . . . . . . . . . .	Number	 00000000h   
sfEvtGainedFocus . . . . . . . .	Number	 00000003h   
sfEvtKeyPressed  . . . . . . . .	Number	 00000005h   
sfEvtKeyReleased . . . . . . . .	Number	 00000006h   
sfEvtLostFocus . . . . . . . . .	Number	 00000002h   
sfEvtMouseButtonPressed  . . . .	Number	 00000009h   
sfEvtMouseButtonReleased . . . .	Number	 0000000Ah   
sfEvtMouseEntered  . . . . . . .	Number	 0000000Ch   
sfEvtMouseLeft . . . . . . . . .	Number	 0000000Dh   
sfEvtMouseMoved  . . . . . . . .	Number	 0000000Bh   
sfEvtMouseWheelMoved . . . . . .	Number	 00000007h   
sfEvtMouseWheelScrolled  . . . .	Number	 00000008h   
sfEvtResized . . . . . . . . . .	Number	 00000001h   
sfEvtTextEntered . . . . . . . .	Number	 00000004h   
sfFalse  . . . . . . . . . . . .	Number	 00000000h   
sfFont_createFromFile  . . . . .	L Near	 00000000 FLAT	External C
sfFont_destroy . . . . . . . . .	L Near	 00000000 FLAT	External C
sfFullscreen . . . . . . . . . .	Number	 00000008h   
sfKeyEnter . . . . . . . . . . .	Number	 0000003Ah   
sfMouseLeft  . . . . . . . . . .	Number	 00000000h   
sfMouseMiddle  . . . . . . . . .	Number	 00000002h   
sfMouseRight . . . . . . . . . .	Number	 00000001h   
sfMusic_createFromFile . . . . .	L Near	 00000000 FLAT	External C
sfMusic_destroy  . . . . . . . .	L Near	 00000000 FLAT	External C
sfMusic_play . . . . . . . . . .	L Near	 00000000 FLAT	External C
sfMusic_setLoop  . . . . . . . .	L Near	 00000000 FLAT	External C
sfNone . . . . . . . . . . . . .	Number	 00000000h   
sfRectangleShape_create  . . . .	L Near	 00000000 FLAT	External C
sfRectangleShape_destroy . . . .	L Near	 00000000 FLAT	External C
sfRectangleShape_setFillColor  .	L Near	 00000000 FLAT	External C
sfRectangleShape_setOutlineColor .	L Near	 00000000 FLAT	External C
sfRectangleShape_setOutlineThickness .	L Near	 00000000 FLAT	External C
sfRectangleShape_setPosition . .	L Near	 00000000 FLAT	External C
sfRectangleShape_setSize . . . .	L Near	 00000000 FLAT	External C
sfRenderWindow_clear . . . . . .	L Near	 00000000 FLAT	External C
sfRenderWindow_close . . . . . .	L Near	 00000000 FLAT	External C
sfRenderWindow_create  . . . . .	L Near	 00000000 FLAT	External C
sfRenderWindow_destroy . . . . .	L Near	 00000000 FLAT	External C
sfRenderWindow_display . . . . .	L Near	 00000000 FLAT	External C
sfRenderWindow_drawRectangleShape 	L Near	 00000000 FLAT	External C
sfRenderWindow_drawSprite  . . .	L Near	 00000000 FLAT	External C
sfRenderWindow_drawText  . . . .	L Near	 00000000 FLAT	External C
sfRenderWindow_isOpen  . . . . .	L Near	 00000000 FLAT	External C
sfRenderWindow_pollEvent . . . .	L Near	 00000000 FLAT	External C
sfResize . . . . . . . . . . . .	Number	 00000002h   
sfSprite_create  . . . . . . . .	L Near	 00000000 FLAT	External C
sfSprite_destroy . . . . . . . .	L Near	 00000000 FLAT	External C
sfSprite_setTexture  . . . . . .	L Near	 00000000 FLAT	External C
sfText_create  . . . . . . . . .	L Near	 00000000 FLAT	External C
sfText_destroy . . . . . . . . .	L Near	 00000000 FLAT	External C
sfText_getGlobalBounds . . . . .	L Near	 00000000 FLAT	External C
sfText_getLocalBounds  . . . . .	L Near	 00000000 FLAT	External C
sfText_setCharacterSize  . . . .	L Near	 00000000 FLAT	External C
sfText_setFillColor  . . . . . .	L Near	 00000000 FLAT	External C
sfText_setFont . . . . . . . . .	L Near	 00000000 FLAT	External C
sfText_setOutlineColor . . . . .	L Near	 00000000 FLAT	External C
sfText_setOutlineThickness . . .	L Near	 00000000 FLAT	External C
sfText_setPosition . . . . . . .	L Near	 00000000 FLAT	External C
sfText_setString . . . . . . . .	L Near	 00000000 FLAT	External C
sfTexture_createFromFile . . . .	L Near	 00000000 FLAT	External C
sfTexture_destroy  . . . . . . .	L Near	 00000000 FLAT	External C
sfTitlebar . . . . . . . . . . .	Number	 00000001h   
sfTrue . . . . . . . . . . . . .	Number	 00000001h   
song1_text . . . . . . . . . . .	Byte	 000000CC _DATA	
song2_text . . . . . . . . . . .	Byte	 000000D3 _DATA	
song3_text . . . . . . . . . . .	Byte	 000000DA _DATA	
text1  . . . . . . . . . . . . .	DWord	 00000112 _DATA	
text2  . . . . . . . . . . . . .	DWord	 00000116 _DATA	
text3  . . . . . . . . . . . . .	DWord	 0000011A _DATA	
window_title . . . . . . . . . .	Byte	 000000BD _DATA	

	   0 Warnings
	   0 Errors
