Microsoft (R) Macro Assembler Version 14.41.34120.0	    12/21/24 15:53:32
main_page.asm						     Page 1 - 1


				.686P
				.XMM
				.model flat, c
				include csfml.inc
			      C ; CSFML.INC - SFML Definitions for x86 Assembly
			      C ; 使用 MASM 語法
			      C 
			      C includelib csfml-audio.lib
			      C includelib csfml-graphics.lib
			      C includelib csfml-system.lib
			      C includelib csfml-window.lib
			      C 
			      C ; sfBool 定義
 = 00000000		      C sfFalse     equ 0
 = 00000001		      C sfTrue      equ 1
			      C 
			      C ; sfEventType 定義
 = 00000000		      C sfEvtClosed               equ 0
 = 00000001		      C sfEvtResized              equ 1
 = 00000002		      C sfEvtLostFocus            equ 2
 = 00000003		      C sfEvtGainedFocus          equ 3
 = 00000004		      C sfEvtTextEntered          equ 4
 = 00000005		      C sfEvtKeyPressed           equ 5
 = 00000006		      C sfEvtKeyReleased          equ 6
 = 00000007		      C sfEvtMouseWheelMoved      equ 7
 = 00000008		      C sfEvtMouseWheelScrolled   equ 8
 = 00000009		      C sfEvtMouseButtonPressed   equ 9
 = 0000000A		      C sfEvtMouseButtonReleased  equ 10
 = 0000000B		      C sfEvtMouseMoved           equ 11
 = 0000000C		      C sfEvtMouseEntered         equ 12
 = 0000000D		      C sfEvtMouseLeft            equ 13
			      C 
			      C ; sfMouseButton 定義
 = 00000000		      C sfMouseLeft   equ 0
 = 00000001		      C sfMouseRight  equ 1
 = 00000002		      C sfMouseMiddle equ 2
			      C 
			      C ; sfKey 定義
 = 0000003A		      C sfKeyEnter    equ 58
 = 00000000		      C sfKeyA        equ 0
 = 00000012		      C sfKeyS        equ 18
 = 00000003		      C sfKeyD        equ 3
 = 00000024		      C sfKeyEscape   equ 36
			      C 
			      C ; 視窗風格定義
 = 00000000		      C sfNone       equ 0
 = 00000001		      C sfTitlebar   equ 1
 = 00000002		      C sfResize     equ 2
 = 00000004		      C sfClose      equ 4
 = 00000008		      C sfFullscreen equ 8
			      C 
			      C ; 結構體定義
 00000008		      C sfVector2f STRUCT
 00000000  00000000	      C     x REAL4 ?
 00000004  00000000	      C     y REAL4 ?
			      C sfVector2f ENDS
			      C 
 00000008		      C sfVector2i STRUCT
 00000000  00000000	      C     x SDWORD ?
 00000004  00000000	      C     y SDWORD ?
			      C sfVector2i ENDS
			      C 
 0000000C		      C sfVideoMode STRUCT
 00000000  00000000	      C     _width  DWORD ?
 00000004  00000000	      C     height DWORD ?
 00000008  00000000	      C     bpp    DWORD ?
			      C sfVideoMode ENDS
			      C 
 00000004		      C sfColor STRUCT
 00000000  00		      C     r BYTE ?
 00000001  00		      C     g BYTE ?
 00000002  00		      C     b BYTE ?
 00000003  00		      C     a BYTE ?
			      C sfColor ENDS
			      C 
 00000010		      C sfFloatRect STRUCT
 00000000  00000000	      C     left   REAL4 ?
 00000004  00000000	      C     top    REAL4 ?
 00000008  00000000	      C     _width  REAL4 ?
 0000000C  00000000	      C     height REAL4 ?
			      C sfFloatRect ENDS
			      C 
 0000000C		      C mouseButton STRUCT
 00000000  00000000	      C     button DWORD ?
 00000004  00000000	      C     x DWORD ?
 00000008  00000000	      C     y DWORD ?
			      C mouseButton ENDS
			      C 
 00000014		      C key STRUCT
 00000000  00000000	      C     code DWORD ?
 00000004  00000000	      C     alt DWORD ?
 00000008  00000000	      C     control DWORD ?
 0000000C  00000000	      C     shift DWORD ?
 00000010  00000000	      C     system DWORD ?
			      C key ENDS
			      C 
 00000030		      C sfEvent STRUCT
 00000000  00000000	      C     _type DWORD ?                
 00000004  00000000	      C     _size DWORD ?                
 00000008  00000000	      C     mouse mouseButton <>       
	   00000000
	   00000000
 00000014  00000000	      C     _key key <>                 
	   00000000
	   00000000
	   00000000
	   00000000
 00000028  00000000	      C     mouseMove sfVector2i <>     
	   00000000
			      C sfEvent ENDS
			      C 
			      C ; 函數原型 - 視窗相關
			      C EXTERN sfRenderWindow_create:PROC
			      C EXTERN sfRenderWindow_destroy:PROC
			      C EXTERN sfRenderWindow_close:PROC
			      C EXTERN sfRenderWindow_isOpen:PROC
			      C EXTERN sfRenderWindow_clear:PROC
			      C EXTERN sfRenderWindow_display:PROC
			      C EXTERN sfRenderWindow_pollEvent:PROC
			      C EXTERN sfRenderWindow_drawSprite:PROC
			      C EXTERN sfRenderWindow_drawText:PROC
			      C 
			      C EXTERN sfWindow_setFramerateLimit:PROC
			      C 
			      C ; 函數原型 - 紋理相關
			      C EXTERN sfTexture_createFromFile:PROC
			      C EXTERN sfTexture_destroy:PROC
			      C 
			      C ; 函數原型 - 精靈相關
			      C EXTERN sfSprite_create:PROC
			      C EXTERN sfSprite_destroy:PROC
			      C EXTERN sfSprite_setTexture:PROC
			      C 
			      C ; 函數原型 - 音樂相關
			      C EXTERN sfMusic_createFromFile:PROC
			      C EXTERN sfMusic_destroy:PROC
			      C EXTERN sfMusic_play:PROC
			      C EXTERN sfMusic_setLoop:PROC
			      C EXTERN sfMusic_stop: PROC
			      C EXTERN sfMusic_getStatus: PROC
			      C 
			      C ; 函數原型 - 文字相關
			      C EXTERN sfFont_createFromFile:PROC
			      C EXTERN sfFont_destroy:PROC
			      C EXTERN sfText_create:PROC
			      C EXTERN sfText_destroy:PROC
			      C EXTERN sfText_setFont:PROC
			      C EXTERN sfText_setString:PROC
			      C EXTERN sfText_setCharacterSize:PROC
			      C EXTERN sfText_setFillColor:PROC
			      C EXTERN sfText_setOutlineColor:PROC
			      C EXTERN sfText_setOutlineThickness:PROC
			      C EXTERN sfText_getLocalBounds:PROC
			      C EXTERN sfText_getGlobalBounds:PROC
			      C EXTERN sfText_setPosition:PROC
			      C 
			      C ; 函數原型 - 顏色相關
			      C EXTERN sfColor_fromRGB:PROC
			      C EXTERN sfColor_fromRGBA:PROC
			      C 
			      C ; 函數原型 - 矩形相關
			      C EXTERN sfRectangleShape_create: PROC
			      C EXTERN sfRectangleShape_setPosition: PROC
			      C EXTERN sfRectangleShape_setSize: PROC
			      C EXTERN sfRectangleShape_setFillColor: PROC
			      C EXTERN sfRectangleShape_setOutlineThickness: PROC
			      C EXTERN sfRenderWindow_drawRectangleShape: PROC
			      C EXTERN sfRectangleShape_destroy: PROC
			      C EXTERN sfRectangleShape_setOutlineColor: PROC
			      C 
			      C EXTERN sfSleep: PROC
			      C 

				extern currentPage: DWORD

 00000000			.data
				    ; 檔案路徑
 00000000 43 3A 5C 55 73	    musicPath db "C:\Users\User\source\repos\TaikoSimulator\TaikoSimulator\assets\main\v_title.ogg", 0
	   65 72 73 5C 55
	   73 65 72 5C 73
	   6F 75 72 63 65
	   5C 72 65 70 6F
	   73 5C 54 61 69
	   6B 6F 53 69 6D
	   75 6C 61 74 6F
	   72 5C 54 61 69
	   6B 6F 53 69 6D
	   75 6C 61 74 6F
	   72 5C 61 73 73
	   65 74 73 5C 6D
	   61 69 6E 5C 76
	   5F 74 69 74 6C
	   65 2E 6F 67 67
	   00
 00000051 43 3A 5C 55 73	    picPath db "C:\Users\User\source\repos\TaikoSimulator\TaikoSimulator\assets\main\taiko_main.jpg", 0
	   65 72 73 5C 55
	   73 65 72 5C 73
	   6F 75 72 63 65
	   5C 72 65 70 6F
	   73 5C 54 61 69
	   6B 6F 53 69 6D
	   75 6C 61 74 6F
	   72 5C 54 61 69
	   6B 6F 53 69 6D
	   75 6C 61 74 6F
	   72 5C 61 73 73
	   65 74 73 5C 6D
	   61 69 6E 5C 74
	   61 69 6B 6F 5F
	   6D 61 69 6E 2E
	   6A 70 67 00
 000000A5 43 3A 5C 55 73	    fontPath db "C:\Users\User\source\repos\TaikoSimulator\TaikoSimulator\assets\main\Taiko_No_Tatsujin_Official_Font.ttf", 0
	   65 72 73 5C 55
	   73 65 72 5C 73
	   6F 75 72 63 65
	   5C 72 65 70 6F
	   73 5C 54 61 69
	   6B 6F 53 69 6D
	   75 6C 61 74 6F
	   72 5C 54 61 69
	   6B 6F 53 69 6D
	   75 6C 61 74 6F
	   72 5C 61 73 73
	   65 74 73 5C 6D
	   61 69 6E 5C 54
	   61 69 6B 6F 5F
	   4E 6F 5F 54 61
	   74 73 75 6A 69
	   6E 5F 4F 66 66
	   69 63 69 61 6C
	   5F 46 6F 6E 74
	   2E 74 74 66 00
				    
				    ; 視窗和遊戲標題
 0000010E 54 61 69 6B 6F	    window_title db "Taiko Simulator", 0
	   20 53 69 6D 75
	   6C 61 74 6F 72
	   00
				    ; 提示文字
 0000011E 43 6C 69 63 6B	    prompt_string db "Click or Press Enter to Start", 0
	   20 6F 72 20 50
	   72 65 73 73 20
	   45 6E 74 65 72
	   20 74 6F 20 53
	   74 61 72 74 00
				    
				    ; CSFML物件
				    ;window dd 0
 0000013C 00000000		    bgTexture dd 0
 00000140 00000000		    bgSprite dd 0
 00000144 00000000		    bgMusic dd 0
 00000148 00000000		    font dd 0
 0000014C 00000000		    titleText dd 0
 00000150 00000000		    promptText dd 0
 00000154 00000000		    titleBounds sfFloatRect <>
	   00000000
	   00000000
	   00000000
 00000164 00000000		    textBounds sfFloatRect <>
	   00000000
	   00000000
	   00000000
				    
				    ; 視窗設定
				    ;window_videoMode sfVideoMode <1280, 720, 32>
 00000174 44A00000		    window_realWidth dd 044a00000r ; 1280.0
				    ; 事件結構
 00000178 00000000		    event sfEvent <>
	   00000000
	   00000000
	   00000000
	   00000000
	   00000000
	   00000000
	   00000000
	   00000000
	   00000000
	   00000000
	   00000000
				    
				    ; 透明度相關
 000001A8 43700000		    opacity dd 043700000r ; 240.0
 000001AC 42480000		    minOpacity dd 042480000r ; 50.0
 000001B0 43700000		    maxOpacity dd 043700000r ; 240.0
 000001B4 C0200000		    deltaOpacity dd -2.5 ; -0.1
 000001B8 00 00 00 00		    textColor sfColor <>
 000001BC 00 00 00 00		    outlineColor sfColor <>
				    
				    ; 顏色常數
 000001C0 E5 6D 32 FF		    titleColor sfColor <229, 109, 50, 255>
 000001C4 FF FF FF FF		    whiteColor sfColor <255, 255, 255, 255>
 000001C8 00 00 00 00		    blackColor sfColor <0, 0, 0, 0>
 000001CC FF 00 00 FF		    redOutlineColor sfColor <255, 0, 0, 255>

				    ; 位置常數
 000001D0 40800000		    four dd 4.0
 000001D4 40000000		    two dd 2.0
 000001D8 43480000		    const_200 dd 200.0
 00000000			.code


				; 載入背景
 00000000			load_background PROC
				    ; 創建背景紋理
 00000000  6A 00		    push 0
 00000002  68 00000051 R	    push offset picPath
 00000007  E8 00000000 E	    call sfTexture_createFromFile
 0000000C  83 C4 08		    add esp, 8
 0000000F  A3 0000013C R	    mov bgTexture, eax
				    
				    ; 創建背景精靈
 00000014  E8 00000000 E	    call sfSprite_create
 00000019  A3 00000140 R	    mov DWORD PTR [bgSprite], eax
				    
				    ; 設定紋理
 0000001E  6A 01		    push 1
 00000020  A1 0000013C R	    mov eax, DWORD PTR [bgTexture]
 00000025  50			    push eax
 00000026  8B 0D 00000140 R	    mov ecx, DWORD PTR [bgSprite]
 0000002C  51			    push ecx
 0000002D  E8 00000000 E	    call sfSprite_setTexture
 00000032  83 C4 0C		    add esp, 12
 00000035  C3			    ret
 00000036			load_background ENDP

 00000036			main_play_music PROC
 00000036  68 00000000 R	    push offset musicPath
 0000003B  E8 00000000 E	    call sfMusic_createFromFile
 00000040  83 C4 04		    add esp, 4 
 00000043  A3 00000144 R	    mov bgMusic, eax

 00000048  50			    push eax
 00000049  E8 00000000 E	    call sfMusic_play
 0000004E  83 C4 04		    add esp, 4
 00000051  C3			    ret
 00000052			main_play_music ENDP

				; 設定標題文字
 00000052			setup_title_text PROC
				    ; Create font
 00000052  68 000000A5 R	    push offset fontPath
 00000057  E8 00000000 E	    call sfFont_createFromFile
 0000005C  83 C4 04		    add esp, 4
 0000005F  A3 00000148 R	    mov font, eax
				    
				    ; Create text object
 00000064  E8 00000000 E	    call sfText_create
 00000069  A3 0000014C R	    mov DWORD PTR [titleText], eax
				    
				    ; Set font
 0000006E  FF 35 00000148 R	    push font
 00000074  A1 0000014C R	    mov eax, DWORD PTR [titleText]
 00000079  50			    push eax
 0000007A  E8 00000000 E	    call sfText_setFont
 0000007F  83 C4 08		    add esp, 8
				    
				    ; Set string
 00000082  68 0000010E R	    push offset window_title
 00000087  A1 0000014C R	    mov eax, DWORD PTR [titleText]
 0000008C  50			    push eax
 0000008D  E8 00000000 E	    call sfText_setString
 00000092  83 C4 08		    add esp, 8
				    
				    ; Set character size
 00000095  6A 38		    push 56
 00000097  A1 0000014C R	    mov eax, DWORD PTR [titleText]
 0000009C  50			    push eax
 0000009D  E8 00000000 E	    call sfText_setCharacterSize
 000000A2  83 C4 08		    add esp, 8
				    
				    ; Set fill color
 000000A5  FF 35 000001C0 R	    push titleColor
 000000AB  A1 0000014C R	    mov eax, DWORD PTR [titleText]
 000000B0  50			    push eax
 000000B1  E8 00000000 E	    call sfText_setFillColor
 000000B6  83 C4 08		    add esp, 8
				    
				    ; Set outline color
 000000B9  FF 35 000001C4 R	    push whiteColor
 000000BF  A1 0000014C R	    mov eax, DWORD PTR [titleText]
 000000C4  50			    push eax
 000000C5  E8 00000000 E	    call sfText_setOutlineColor
 000000CA  83 C4 08		    add esp, 8
				    
				    ; Set outline thickness
 000000CD  F3/ 0F 10 05		    movss xmm0, DWORD PTR [four]  ; Load 4.0 into xmm0
	   000001D0 R
 000000D5  83 EC 04		    sub esp, 4
 000000D8  F3/ 0F 11 04 24	    movss DWORD PTR [esp], xmm0  ; Store xmm0 to memory

 000000DD  FF 35 0000014C R	    push DWORD PTR [titleText]

 000000E3  E8 00000000 E	    call sfText_setOutlineThickness
 000000E8  83 C4 08		    add esp, 8
				    
				    ; Set position
 000000EB  83 EC 10		    sub esp, 16
 000000EE  8D 04 24		    lea eax, [esp]

 000000F1  FF 35 0000014C R	    push DWORD PTR [titleText]
 000000F7  50			    push eax
 000000F8  E8 00000000 E	    call sfText_getLocalBounds
 000000FD  83 C4 08		    add esp, 8

 00000100  8B 10		    mov edx, DWORD PTR [eax]
 00000102  89 15 00000154 R	    mov DWORD PTR [titleBounds.left], edx
 00000108  8B 48 04		    mov ecx, DWORD PTR [eax+4]
 0000010B  89 0D 00000158 R	    mov DWORD PTR [titleBounds.top], ecx
 00000111  8B 50 08		    mov edx, DWORD PTR [eax+8]
 00000114  89 15 0000015C R	    mov DWORD PTR [titleBounds._width], edx
 0000011A  8B 40 0C		    mov eax, DWORD PTR [eax+12]
 0000011D  A3 00000160 R	    mov DWORD PTR [titleBounds.height], eax

 00000122  83 C4 10		    add esp, 16
				    
				    ; Adjust position
 00000125  F3/ 0F 10 05		    movss xmm0, DWORD PTR [window_realWidth]
	   00000174 R
 0000012D  F3/ 0F 5C 05		    subss xmm0, DWORD PTR [titleBounds._width]
	   0000015C R
 00000135  F3/ 0F 10 0D		    movss xmm1, DWORD PTR [two]
	   000001D4 R
 0000013D  F3/ 0F 5E C1		    divss xmm0, xmm1
 00000141  F3/ 0F 11 44 24	    movss DWORD PTR [esp-8], xmm0
	   F8
				    
 00000147  F3/ 0F 10 05		    movss xmm0, DWORD PTR [const_200]
	   000001D8 R
 0000014F  F3/ 0F 11 44 24	    movss DWORD PTR [esp-4], xmm0
	   FC

 00000155  8B F4		    mov esi, esp

 00000157  FF 76 FC		    push DWORD PTR [esi-4] ; y (200.0)
 0000015A  FF 76 F8		    push DWORD PTR [esi-8] ; x (centered)
 0000015D  FF 35 0000014C R	    push DWORD PTR [titleText]
 00000163  E8 00000000 E	    call sfText_setPosition
 00000168  83 C4 0C		    add esp, 12

 0000016B  C3			    ret
 0000016C			setup_title_text ENDP

				; 設定提示文字
 0000016C			setup_prompt_text PROC
					; Create text object
 0000016C  E8 00000000 E		call sfText_create
 00000171  A3 00000150 R		mov DWORD PTR [promptText], eax
					
					; Set font
 00000176  FF 35 00000148 R		push font
 0000017C  A1 00000150 R		mov eax, DWORD PTR [promptText]
 00000181  50				push eax
 00000182  E8 00000000 E		call sfText_setFont
 00000187  83 C4 08			add esp, 8
					
					; Set string
 0000018A  68 0000011E R		push offset prompt_string
 0000018F  A1 00000150 R		mov eax, DWORD PTR [promptText]
 00000194  50				push eax
 00000195  E8 00000000 E		call sfText_setString
 0000019A  83 C4 08			add esp, 8
					
					; Set character size
 0000019D  6A 2D			push 45
 0000019F  A1 00000150 R		mov eax, DWORD PTR [promptText]
 000001A4  50				push eax
 000001A5  E8 00000000 E		call sfText_setCharacterSize
 000001AA  83 C4 08			add esp, 8
					
					; Set fill color
 000001AD  FF 35 000001C4 R		push whiteColor
 000001B3  A1 00000150 R		mov eax, DWORD PTR [promptText]
 000001B8  50				push eax
 000001B9  E8 00000000 E		call sfText_setFillColor
 000001BE  83 C4 08			add esp, 8

				    ; Set outline color
 000001C1  FF 35 000001CC R	    push redOutlineColor
 000001C7  FF 35 00000150 R	    push DWORD PTR [promptText]
 000001CD  E8 00000000 E	    call sfText_setOutlineColor
 000001D2  83 C4 08		    add esp, 8

				    ; Set outline thickness
 000001D5  F3/ 0F 10 05		    movss xmm0, DWORD PTR [two]
	   000001D4 R
 000001DD  83 EC 04		    sub esp, 4
 000001E0  F3/ 0F 11 04 24	    movss DWORD PTR [esp], xmm0

 000001E5  FF 35 00000150 R	    push DWORD PTR [promptText]
 000001EB  E8 00000000 E	    call sfText_setOutlineThickness
 000001F0  83 C4 08		    add esp, 8
					
				    ; Set position
 000001F3  83 EC 10		    sub esp, 16
 000001F6  8D 04 24		    lea eax, [esp]

 000001F9  FF 35 00000150 R	    push DWORD PTR [promptText]
 000001FF  50			    push eax
 00000200  E8 00000000 E	    call sfText_getLocalBounds
 00000205  83 C4 08		    add esp, 8

 00000208  8B 10		    mov edx, DWORD PTR [eax]
 0000020A  89 15 00000164 R	    mov DWORD PTR [textBounds.left], edx
 00000210  8B 48 04		    mov ecx, DWORD PTR [eax+4]
 00000213  89 0D 00000168 R	    mov DWORD PTR [textBounds.top], ecx
 00000219  8B 50 08		    mov edx, DWORD PTR [eax+8]
 0000021C  89 15 0000016C R	    mov DWORD PTR [textBounds._width], edx
 00000222  8B 40 0C		    mov eax, DWORD PTR [eax+12]
 00000225  A3 00000170 R	    mov DWORD PTR [textBounds.height], eax

 0000022A  83 C4 10		    add esp, 16

					; Adjust position
 0000022D  F3/ 0F 10 05			movss xmm0, DWORD PTR [window_realWidth]
	   00000174 R
 00000235  F3/ 0F 5C 05			subss xmm0, DWORD PTR [textBounds._width]
	   0000016C R
 0000023D  F3/ 0F 10 0D			movss xmm1, DWORD PTR [two]
	   000001D4 R
 00000245  F3/ 0F 5E C1			divss xmm0, xmm1
 00000249  F3/ 0F 11 44 24		movss DWORD PTR [esp-8], xmm0
	   F8
					
 0000024F  F3/ 0F 10 05			movss xmm0, DWORD PTR [const_200]
	   000001D8 R
 00000257  F3/ 0F 59 05		    mulss xmm0, DWORD PTR [two]
	   000001D4 R
 0000025F  F3/ 0F 11 44 24		movss DWORD PTR [esp-4], xmm0
	   FC

 00000265  8B F4			mov esi, esp

 00000267  FF 76 FC			push DWORD PTR [esi-4] ; y (400.0)
 0000026A  FF 76 F8			push DWORD PTR [esi-8] ; x (centered)
 0000026D  FF 35 00000150 R		push DWORD PTR [promptText]
 00000273  E8 00000000 E		call sfText_setPosition
 00000278  83 C4 0C			add esp, 12

 0000027B  C3				ret
 0000027C			setup_prompt_text ENDP

 0000027C			update_text_opacity PROC
				    ; 載入當前透明度
 0000027C  D9 05 000001A8 R	    fld dword ptr [opacity]
 00000282  D8 05 000001B4 R	    fadd dword ptr [deltaOpacity]
 00000288  D9 1D 000001A8 R	    fstp dword ptr [opacity]
				    
				    ; 檢查透明度邊界
 0000028E  D9 05 000001AC R	    fld dword ptr [minOpacity]
 00000294  D9 05 000001A8 R	    fld dword ptr [opacity]
 0000029A  DF F1		    fcomip st(0), st(1)
 0000029C  DD D8		    fstp st(0)
 0000029E  0F 82 00000085	    jb reverse_opacity
				    
 000002A4  D9 05 000001B0 R	    fld dword ptr [maxOpacity]
 000002AA  D9 05 000001A8 R	    fld dword ptr [opacity]
 000002B0  DF F1		    fcomip st(0), st(1)
 000002B2  DD D8		    fstp st(0)
 000002B4  77 73		    ja reverse_opacity

 000002B6			continue_opacity:
				    ; 更新填充顏色透明度
 000002B6  F3/ 0F 2C 05		    cvttss2si eax, DWORD PTR [opacity] ; Floating-Point Value to Integer
	   000001A8 R
 000002BE  0F B6 C8		    movzx ecx, al
 000002C1  51			    push ecx
 000002C2  68 000000FF		    push 255
 000002C7  68 000000FF		    push 255
 000002CC  68 000000FF		    push 255
 000002D1  E8 00000000 E	    call sfColor_fromRGBA
 000002D6  83 C4 10		    add esp, 16
 000002D9  A3 000001B8 R	    mov DWORD PTR [textColor], eax

				    ; 更新輪廓顏色透明度
 000002DE  F3/ 0F 2C 05		    cvttss2si eax, DWORD PTR [opacity] ; Floating-Point Value to Integer
	   000001A8 R
 000002E6  0F B6 C8		    movzx ecx, al
 000002E9  51			    push ecx
 000002EA  6A 00		    push 0
 000002EC  6A 00		    push 0
 000002EE  68 000000FF		    push 255
 000002F3  E8 00000000 E	    call sfColor_fromRGBA
 000002F8  83 C4 10		    add esp, 16
 000002FB  A3 000001BC R	    mov DWORD PTR [outlineColor], eax
				    
				    ; 設定透明顏色
 00000300  FF 35 000001B8 R	    push textColor
 00000306  FF 35 00000150 R	    push DWORD PTR [promptText]
 0000030C  E8 00000000 E	    call sfText_setFillColor
 00000311  83 C4 08		    add esp, 8
				    
 00000314  FF 35 000001BC R	    push outlineColor
 0000031A  FF 35 00000150 R	    push DWORD PTR [promptText]
 00000320  E8 00000000 E	    call sfText_setOutlineColor
 00000325  83 C4 08		    add esp, 8
				    
 00000328  C3			    ret

 00000329			reverse_opacity:
				    ; 反轉透明度變化方向
 00000329  D9 05 000001B4 R	    fld dword ptr [deltaOpacity]
 0000032F  D9 E0		    fchs
 00000331  D9 1D 000001B4 R	    fstp dword ptr [deltaOpacity]
 00000337  E9 FFFFFF7A		    jmp continue_opacity
 0000033C			update_text_opacity ENDP

 0000033C			main_page_proc PROC window:DWORD
				    
				   ; 載入背景
 0000033F  E8 FFFFFCBC		    call load_background
 00000344  85 C0		    test eax, eax
 00000346  0F 84 000000E7	    jz exit_program
				    
				    ; 播放音樂
 0000034C  E8 FFFFFCE5		    call main_play_music
				    
				    ; 設定標題文字
 00000351  E8 FFFFFCFC		    call setup_title_text
				    
				    ; 設定提示文字
 00000356  E8 FFFFFE11		    call setup_prompt_text

 0000035B			main_loop:
				    
 0000035B  8B 45 08		    mov eax, DWORD PTR [window]
 0000035E  50			    push eax
 0000035F  E8 00000000 E	    call sfRenderWindow_isOpen
 00000364  83 C4 04		    add esp, 4
 00000367  85 C0		    test eax, eax
 00000369  0F 84 000000C4	    je exit_program

 0000036F			    event_loop:
				        ; 事件處理
 0000036F  8D 35 00000178 R	        lea esi, event
 00000375  56			        push esi
 00000376  8B 45 08		        mov eax, DWORD PTR [window]
 00000379  50			        push eax
 0000037A  E8 00000000 E	        call sfRenderWindow_pollEvent
 0000037F  83 C4 08		        add esp, 8
 00000382  85 C0		        test eax, eax
 00000384  74 21		        je render_window
				    
				        ; 檢查關閉事件
 00000386  83 3E 00		        cmp dword ptr [esi].sfEvent._type, sfEvtClosed
 00000389  0F 84 0000009A	        je @end
				    
				        ; 檢查滑鼠點擊
 0000038F  83 3E 09		        cmp dword ptr [esi].sfEvent._type, sfEvtMouseButtonPressed
 00000392  0F 84 00000085	        je start_game
				    
				        ; 檢查鍵盤事件
 00000398  83 3E 05		        cmp dword ptr [esi].sfEvent._type, sfEvtKeyPressed
 0000039B  74 02		        je enterPressed

 0000039D  EB D0		        jmp event_loop

 0000039F			        enterPressed:
 0000039F  83 7E 04 3A		            cmp dword ptr [esi+4], sfKeyEnter ; 記憶體中，sfEvtKeyPressed的鍵盤按鍵代碼(58)在偏移4的位置
 000003A3  74 78		            je start_game
 000003A5  EB C8		            jmp event_loop
				    
 000003A7			    render_window:
				        ; 更新透明度
 000003A7  E8 FFFFFED0		        call update_text_opacity
 000003AC  6A 00		        push 0
 000003AE  A1 00000150 R	        mov eax, DWORD PTR [promptText]
 000003B3  50			        push eax
 000003B4  8B 4D 08		        mov ecx, DWORD PTR [window]
 000003B7  51			        push ecx
 000003B8  E8 00000000 E	        call sfRenderWindow_drawText
 000003BD  83 C4 0C		        add esp, 12

				        ; 清除視窗
 000003C0  FF 35 000001C8 R	        push blackColor
 000003C6  FF 75 08		        push window
 000003C9  E8 00000000 E	        call sfRenderWindow_clear
 000003CE  83 C4 08		        add esp, 8
				    
				        ; 繪製背景
 000003D1  6A 00		        push 0
 000003D3  A1 00000140 R	        mov eax, DWORD PTR [bgSprite]
 000003D8  50			        push eax
 000003D9  8B 4D 08		        mov ecx, DWORD PTR [window]
 000003DC  51			        push ecx
 000003DD  E8 00000000 E	        call sfRenderWindow_drawSprite
 000003E2  83 C4 0C		        add esp, 12

				        ; 繪製標題文字
 000003E5  6A 00		        push 0
 000003E7  A1 0000014C R	        mov eax, DWORD PTR [titleText]
 000003EC  50			        push eax
 000003ED  8B 4D 08		        mov ecx, DWORD PTR [window]
 000003F0  51			        push ecx
 000003F1  E8 00000000 E	        call sfRenderWindow_drawText
 000003F6  83 C4 0C		        add esp, 12

				        ; 繪製提示文字
 000003F9  6A 00		        push 0
 000003FB  FF 35 00000150 R	        push DWORD PTR [promptText]
 00000401  FF 75 08		        push DWORD PTR [window]
 00000404  E8 00000000 E	        call sfRenderWindow_drawText
 00000409  83 C4 0C		        add esp, 12

				        ; 顯示視窗
 0000040C  8B 45 08		        mov eax, DWORD PTR [window]
 0000040F  50			        push eax
 00000410  E8 00000000 E	        call sfRenderWindow_display
 00000415  83 C4 04		        add esp, 4

 00000418  E9 FFFFFF3E		        jmp main_loop

 0000041D			start_game:
				    ; 這裡可以添加進入音樂選擇頁面的邏輯
 0000041D  C7 05 00000000 E	    mov DWORD PTR [currentPage], 1
	   00000001
 00000427  EB 0A		    jmp exit_program

 00000429			@end:
 00000429  C7 05 00000000 E	    mov DWORD PTR [currentPage], -1
	   FFFFFFFF

 00000433			exit_program:
				    ; 釋放資源
 00000433  FF 35 00000144 R	    push bgMusic
 00000439  E8 00000000 E	    call sfMusic_destroy
 0000043E  83 C4 04		    add esp, 4

 00000441  FF 35 00000140 R	    push bgSprite
 00000447  E8 00000000 E	    call sfSprite_destroy
 0000044C  83 C4 04		    add esp, 4

 0000044F  FF 35 0000013C R	    push bgTexture
 00000455  E8 00000000 E	    call sfTexture_destroy
 0000045A  83 C4 04		    add esp, 4

 0000045D  FF 35 0000014C R	    push titleText
 00000463  E8 00000000 E	    call sfText_destroy
 00000468  83 C4 04		    add esp, 4

 0000046B  FF 35 00000150 R	    push promptText
 00000471  E8 00000000 E	    call sfText_destroy
 00000476  83 C4 04		    add esp, 4

 00000479  FF 35 00000148 R	    push font
 0000047F  E8 00000000 E	    call sfFont_destroy
 00000484  83 C4 04		    add esp, 4

				    ret
 00000489			main_page_proc ENDP

				END main_page_proc
Microsoft (R) Macro Assembler Version 14.41.34120.0	    12/21/24 15:53:32
main_page.asm						     Symbols 2 - 1




Structures and Unions:

                N a m e                  Size
                                         Offset      Type

key  . . . . . . . . . . . . . .	 00000014
  code . . . . . . . . . . . . .	 00000000	 DWord
  alt  . . . . . . . . . . . . .	 00000004	 DWord
  control  . . . . . . . . . . .	 00000008	 DWord
  shift  . . . . . . . . . . . .	 0000000C	 DWord
  system . . . . . . . . . . . .	 00000010	 DWord
mouseButton  . . . . . . . . . .	 0000000C
  button . . . . . . . . . . . .	 00000000	 DWord
  x  . . . . . . . . . . . . . .	 00000004	 DWord
  y  . . . . . . . . . . . . . .	 00000008	 DWord
sfColor  . . . . . . . . . . . .	 00000004
  r  . . . . . . . . . . . . . .	 00000000	 Byte
  g  . . . . . . . . . . . . . .	 00000001	 Byte
  b  . . . . . . . . . . . . . .	 00000002	 Byte
  a  . . . . . . . . . . . . . .	 00000003	 Byte
sfEvent  . . . . . . . . . . . .	 00000030
  _type  . . . . . . . . . . . .	 00000000	 DWord
  _size  . . . . . . . . . . . .	 00000004	 DWord
  mouse  . . . . . . . . . . . .	 00000008	 
  _key . . . . . . . . . . . . .	 00000014	 
  mouseMove  . . . . . . . . . .	 00000028	 QWord
sfFloatRect  . . . . . . . . . .	 00000010
  left . . . . . . . . . . . . .	 00000000	 DWord
  top  . . . . . . . . . . . . .	 00000004	 DWord
  _width . . . . . . . . . . . .	 00000008	 DWord
  height . . . . . . . . . . . .	 0000000C	 DWord
sfVector2f . . . . . . . . . . .	 00000008
  x  . . . . . . . . . . . . . .	 00000000	 DWord
  y  . . . . . . . . . . . . . .	 00000004	 DWord
sfVector2i . . . . . . . . . . .	 00000008
  x  . . . . . . . . . . . . . .	 00000000	 DWord
  y  . . . . . . . . . . . . . .	 00000004	 DWord
sfVideoMode  . . . . . . . . . .	 0000000C
  _width . . . . . . . . . . . .	 00000000	 DWord
  height . . . . . . . . . . . .	 00000004	 DWord
  bpp  . . . . . . . . . . . . .	 00000008	 DWord


Segments and Groups:

                N a m e                 Size     Length   Align   Combine Class

FLAT . . . . . . . . . . . . . .	GROUP
_DATA  . . . . . . . . . . . . .	32 Bit	 000001DC Para	  Public  'DATA'	
_TEXT  . . . . . . . . . . . . .	32 Bit	 00000489 Para	  Public  'CODE'	


Procedures, parameters, and locals:

                N a m e                 Type     Value    Attr

load_background  . . . . . . . .	P Near	 00000000 _TEXT	Length= 00000036 Public C
main_page_proc . . . . . . . . .	P Near	 0000033C _TEXT	Length= 0000014D Public C
  window . . . . . . . . . . . .	DWord	 bp + 00000008
  main_loop  . . . . . . . . . .	L Near	 0000035B _TEXT	
  event_loop . . . . . . . . . .	L Near	 0000036F _TEXT	
  enterPressed . . . . . . . . .	L Near	 0000039F _TEXT	
  render_window  . . . . . . . .	L Near	 000003A7 _TEXT	
  start_game . . . . . . . . . .	L Near	 0000041D _TEXT	
  @end . . . . . . . . . . . . .	L Near	 00000429 _TEXT	
  exit_program . . . . . . . . .	L Near	 00000433 _TEXT	
main_play_music  . . . . . . . .	P Near	 00000036 _TEXT	Length= 0000001C Public C
setup_prompt_text  . . . . . . .	P Near	 0000016C _TEXT	Length= 00000110 Public C
setup_title_text . . . . . . . .	P Near	 00000052 _TEXT	Length= 0000011A Public C
update_text_opacity  . . . . . .	P Near	 0000027C _TEXT	Length= 000000C0 Public C
  continue_opacity . . . . . . .	L Near	 000002B6 _TEXT	
  reverse_opacity  . . . . . . .	L Near	 00000329 _TEXT	


Symbols:

                N a m e                 Type     Value    Attr

@CodeSize  . . . . . . . . . . .	Number	 00000000h   
@DataSize  . . . . . . . . . . .	Number	 00000000h   
@Interface . . . . . . . . . . .	Number	 00000001h   
@Model . . . . . . . . . . . . .	Number	 00000007h   
@code  . . . . . . . . . . . . .	Text   	 _TEXT
@data  . . . . . . . . . . . . .	Text   	 FLAT
@fardata?  . . . . . . . . . . .	Text   	 FLAT
@fardata . . . . . . . . . . . .	Text   	 FLAT
@stack . . . . . . . . . . . . .	Text   	 FLAT
bgMusic  . . . . . . . . . . . .	DWord	 00000144 _DATA	
bgSprite . . . . . . . . . . . .	DWord	 00000140 _DATA	
bgTexture  . . . . . . . . . . .	DWord	 0000013C _DATA	
blackColor . . . . . . . . . . .	sfColor	 000001C8 _DATA	
const_200  . . . . . . . . . . .	DWord	 000001D8 _DATA	
currentPage  . . . . . . . . . .	DWord	 00000000 FLAT	External C
deltaOpacity . . . . . . . . . .	DWord	 000001B4 _DATA	
event  . . . . . . . . . . . . .	sfEvent	 00000178 _DATA	
fontPath . . . . . . . . . . . .	Byte	 000000A5 _DATA	
font . . . . . . . . . . . . . .	DWord	 00000148 _DATA	
four . . . . . . . . . . . . . .	DWord	 000001D0 _DATA	
maxOpacity . . . . . . . . . . .	DWord	 000001B0 _DATA	
minOpacity . . . . . . . . . . .	DWord	 000001AC _DATA	
musicPath  . . . . . . . . . . .	Byte	 00000000 _DATA	
opacity  . . . . . . . . . . . .	DWord	 000001A8 _DATA	
outlineColor . . . . . . . . . .	sfColor	 000001BC _DATA	
picPath  . . . . . . . . . . . .	Byte	 00000051 _DATA	
promptText . . . . . . . . . . .	DWord	 00000150 _DATA	
prompt_string  . . . . . . . . .	Byte	 0000011E _DATA	
redOutlineColor  . . . . . . . .	sfColor	 000001CC _DATA	
sfClose  . . . . . . . . . . . .	Number	 00000004h   
sfColor_fromRGBA . . . . . . . .	L Near	 00000000 FLAT	External C
sfColor_fromRGB  . . . . . . . .	L Near	 00000000 FLAT	External C
sfEvtClosed  . . . . . . . . . .	Number	 00000000h   
sfEvtGainedFocus . . . . . . . .	Number	 00000003h   
sfEvtKeyPressed  . . . . . . . .	Number	 00000005h   
sfEvtKeyReleased . . . . . . . .	Number	 00000006h   
sfEvtLostFocus . . . . . . . . .	Number	 00000002h   
sfEvtMouseButtonPressed  . . . .	Number	 00000009h   
sfEvtMouseButtonReleased . . . .	Number	 0000000Ah   
sfEvtMouseEntered  . . . . . . .	Number	 0000000Ch   
sfEvtMouseLeft . . . . . . . . .	Number	 0000000Dh   
sfEvtMouseMoved  . . . . . . . .	Number	 0000000Bh   
sfEvtMouseWheelMoved . . . . . .	Number	 00000007h   
sfEvtMouseWheelScrolled  . . . .	Number	 00000008h   
sfEvtResized . . . . . . . . . .	Number	 00000001h   
sfEvtTextEntered . . . . . . . .	Number	 00000004h   
sfFalse  . . . . . . . . . . . .	Number	 00000000h   
sfFont_createFromFile  . . . . .	L Near	 00000000 FLAT	External C
sfFont_destroy . . . . . . . . .	L Near	 00000000 FLAT	External C
sfFullscreen . . . . . . . . . .	Number	 00000008h   
sfKeyA . . . . . . . . . . . . .	Number	 00000000h   
sfKeyD . . . . . . . . . . . . .	Number	 00000003h   
sfKeyEnter . . . . . . . . . . .	Number	 0000003Ah   
sfKeyEscape  . . . . . . . . . .	Number	 00000024h   
sfKeyS . . . . . . . . . . . . .	Number	 00000012h   
sfMouseLeft  . . . . . . . . . .	Number	 00000000h   
sfMouseMiddle  . . . . . . . . .	Number	 00000002h   
sfMouseRight . . . . . . . . . .	Number	 00000001h   
sfMusic_createFromFile . . . . .	L Near	 00000000 FLAT	External C
sfMusic_destroy  . . . . . . . .	L Near	 00000000 FLAT	External C
sfMusic_getStatus  . . . . . . .	L Near	 00000000 FLAT	External C
sfMusic_play . . . . . . . . . .	L Near	 00000000 FLAT	External C
sfMusic_setLoop  . . . . . . . .	L Near	 00000000 FLAT	External C
sfMusic_stop . . . . . . . . . .	L Near	 00000000 FLAT	External C
sfNone . . . . . . . . . . . . .	Number	 00000000h   
sfRectangleShape_create  . . . .	L Near	 00000000 FLAT	External C
sfRectangleShape_destroy . . . .	L Near	 00000000 FLAT	External C
sfRectangleShape_setFillColor  .	L Near	 00000000 FLAT	External C
sfRectangleShape_setOutlineColor .	L Near	 00000000 FLAT	External C
sfRectangleShape_setOutlineThickness .	L Near	 00000000 FLAT	External C
sfRectangleShape_setPosition . .	L Near	 00000000 FLAT	External C
sfRectangleShape_setSize . . . .	L Near	 00000000 FLAT	External C
sfRenderWindow_clear . . . . . .	L Near	 00000000 FLAT	External C
sfRenderWindow_close . . . . . .	L Near	 00000000 FLAT	External C
sfRenderWindow_create  . . . . .	L Near	 00000000 FLAT	External C
sfRenderWindow_destroy . . . . .	L Near	 00000000 FLAT	External C
sfRenderWindow_display . . . . .	L Near	 00000000 FLAT	External C
sfRenderWindow_drawRectangleShape 	L Near	 00000000 FLAT	External C
sfRenderWindow_drawSprite  . . .	L Near	 00000000 FLAT	External C
sfRenderWindow_drawText  . . . .	L Near	 00000000 FLAT	External C
sfRenderWindow_isOpen  . . . . .	L Near	 00000000 FLAT	External C
sfRenderWindow_pollEvent . . . .	L Near	 00000000 FLAT	External C
sfResize . . . . . . . . . . . .	Number	 00000002h   
sfSleep  . . . . . . . . . . . .	L Near	 00000000 FLAT	External C
sfSprite_create  . . . . . . . .	L Near	 00000000 FLAT	External C
sfSprite_destroy . . . . . . . .	L Near	 00000000 FLAT	External C
sfSprite_setTexture  . . . . . .	L Near	 00000000 FLAT	External C
sfText_create  . . . . . . . . .	L Near	 00000000 FLAT	External C
sfText_destroy . . . . . . . . .	L Near	 00000000 FLAT	External C
sfText_getGlobalBounds . . . . .	L Near	 00000000 FLAT	External C
sfText_getLocalBounds  . . . . .	L Near	 00000000 FLAT	External C
sfText_setCharacterSize  . . . .	L Near	 00000000 FLAT	External C
sfText_setFillColor  . . . . . .	L Near	 00000000 FLAT	External C
sfText_setFont . . . . . . . . .	L Near	 00000000 FLAT	External C
sfText_setOutlineColor . . . . .	L Near	 00000000 FLAT	External C
sfText_setOutlineThickness . . .	L Near	 00000000 FLAT	External C
sfText_setPosition . . . . . . .	L Near	 00000000 FLAT	External C
sfText_setString . . . . . . . .	L Near	 00000000 FLAT	External C
sfTexture_createFromFile . . . .	L Near	 00000000 FLAT	External C
sfTexture_destroy  . . . . . . .	L Near	 00000000 FLAT	External C
sfTitlebar . . . . . . . . . . .	Number	 00000001h   
sfTrue . . . . . . . . . . . . .	Number	 00000001h   
sfWindow_setFramerateLimit . . .	L Near	 00000000 FLAT	External C
textBounds . . . . . . . . . . .	sfFloatRect  00000164 _DATA	
textColor  . . . . . . . . . . .	sfColor	 000001B8 _DATA	
titleBounds  . . . . . . . . . .	sfFloatRect  00000154 _DATA	
titleColor . . . . . . . . . . .	sfColor	 000001C0 _DATA	
titleText  . . . . . . . . . . .	DWord	 0000014C _DATA	
two  . . . . . . . . . . . . . .	DWord	 000001D4 _DATA	
whiteColor . . . . . . . . . . .	sfColor	 000001C4 _DATA	
window_realWidth . . . . . . . .	DWord	 00000174 _DATA	
window_title . . . . . . . . . .	Byte	 0000010E _DATA	

	   0 Warnings
	   0 Errors
